Archive member included because of file (symbol)

./gr_common/lib/libc.a(lib_a-errno.o)
                              ./gr_common/lowlevel.o (__errno)
./gr_common/lib/libc.a(lib_a-impure.o)
                              ./gr_common/lib/libc.a(lib_a-errno.o) (_impure_ptr)
./gr_common/lib/libc.a(lib_a-sprintf.o)
                              ./gr_sketch.o (sprintf)
./gr_common/lib/libc.a(lib_a-svfprintf.o)
                              ./gr_common/lib/libc.a(lib_a-sprintf.o) (_svfprintf_r)
./gr_common/lib/libc.a(lib_a-dtoa.o)
                              ./gr_common/lib/libc.a(lib_a-svfprintf.o) (_dtoa_r)
./gr_common/lib/libc.a(lib_a-locale.o)
                              ./gr_common/lib/libc.a(lib_a-svfprintf.o) (_localeconv_r)
./gr_common/lib/libc.a(lib_a-mallocr.o)
                              ./gr_common/lib/libc.a(lib_a-svfprintf.o) (_malloc_r)
./gr_common/lib/libc.a(lib_a-memchr.o)
                              ./gr_common/lib/libc.a(lib_a-svfprintf.o) (memchr)
./gr_common/lib/libc.a(lib_a-memcpy.o)
                              ./gr_common/lib/libc.a(lib_a-dtoa.o) (memcpy)
./gr_common/lib/libc.a(lib_a-mlock.o)
                              ./gr_common/lib/libc.a(lib_a-mallocr.o) (__malloc_lock)
./gr_common/lib/libc.a(lib_a-mprec.o)
                              ./gr_common/lib/libc.a(lib_a-dtoa.o) (_Balloc)
./gr_common/lib/libc.a(lib_a-sbrkr.o)
                              ./gr_common/lib/libc.a(lib_a-mallocr.o) (_sbrk_r)
./gr_common/lib/libc.a(lib_a-sf_fpclassify.o)
                              ./gr_common/lib/libc.a(lib_a-svfprintf.o) (__fpclassifyf)
./gr_common/lib/libc.a(lib_a-strcmp.o)
                              ./gr_common/lib/libc.a(lib_a-locale.o) (strcmp)
./gr_common/lib/libc.a(lib_a-strlen.o)
                              ./gr_common/lib/libc.a(lib_a-svfprintf.o) (strlen)
./gr_common/lib/libc.a(lib_a-svfiprintf.o)
                              ./gr_common/lib/libc.a(lib_a-svfprintf.o) (__ssprint_r)
./gr_common/lib/libc.a(lib_a-callocr.o)
                              ./gr_common/lib/libc.a(lib_a-mprec.o) (_calloc_r)
./gr_common/lib/libc.a(lib_a-freer.o)
                              ./gr_common/lib/libc.a(lib_a-mallocr.o) (_free_r)
./gr_common/lib/libc.a(lib_a-memmove.o)
                              ./gr_common/lib/libc.a(lib_a-svfiprintf.o) (memmove)
./gr_common/lib/libc.a(lib_a-memset.o)
                              ./gr_common/lib/libc.a(lib_a-callocr.o) (memset)
./gr_common/lib/libc.a(lib_a-reallocr.o)
                              ./gr_common/lib/libc.a(lib_a-svfiprintf.o) (_realloc_r)
./gr_common/lib/libc.a(lib_a-reent.o)
                              ./gr_common/lib/libc.a(lib_a-sbrkr.o) (errno)
./gr_common/lib/libgcc.a(_udivdi3.o)
                              ./gr_common/lib/libc.a(lib_a-svfprintf.o) (__udivdi3)
./gr_common/lib/libgcc.a(_umoddi3.o)
                              ./gr_common/lib/libc.a(lib_a-svfprintf.o) (__umoddi3)
./gr_common/lib/libgcc.a(_clz.o)
                              ./gr_common/lib/libgcc.a(_udivdi3.o) (__clz_tab)
./gr_common/lib/libm.a(lib_a-wf_fmod.o)
                              ./gr_sketch.o (fmod)
./gr_common/lib/libm.a(lib_a-ef_fmod.o)
                              ./gr_common/lib/libm.a(lib_a-wf_fmod.o) (__ieee754_fmodf)
./gr_common/lib/libm.a(lib_a-s_lib_ver.o)
                              ./gr_common/lib/libm.a(lib_a-wf_fmod.o) (__fdlib_version)
./gr_common/lib/libm.a(lib_a-s_matherr.o)
                              ./gr_common/lib/libm.a(lib_a-wf_fmod.o) (matherr)
./gr_common/lib/librxduino.a(analogio.o)
                              ./gr_sketch.o (analogRead)
./gr_common/lib/librxduino.a(delay.o)
                              ./gr_sketch.o (micros)
./gr_common/lib/librxduino.a(digitalio.o)
                              ./gr_sketch.o (pinMode)
./gr_common/lib/librxduino.a(rxduino.o)
                              ./gr_common/gstart.o (main)
./gr_common/lib/libstdc++.a(string-inst.o)
                              ./gr_sketch.o (std::string::_Rep::_S_empty_rep_storage)
./gr_common/lib/libstdc++.a(del_op.o)
                              ./gr_common/lib/libstdc++.a(string-inst.o) (operator delete(void*))
./gr_common/lib/libstdc++.a(eh_catch.o)
                              ./gr_common/lib/libstdc++.a(string-inst.o) (__cxa_begin_catch)
./gr_common/lib/libstdc++.a(eh_personality.o)
                              ./gr_common/lib/libstdc++.a(string-inst.o) (__gxx_personality_sj0)
./gr_common/lib/libstdc++.a(eh_exception.o)
                              ./gr_common/lib/libstdc++.a(eh_personality.o) (typeinfo for std::bad_exception)
./gr_common/lib/libstdc++.a(new_op.o)
                              ./gr_common/lib/libstdc++.a(string-inst.o) (operator new(unsigned long))
./gr_common/lib/libstdc++.a(pure.o)
                              ./gr_common/lib/libstdc++.a(eh_exception.o) (__cxa_pure_virtual)
./gr_common/lib/libstdc++.a(eh_globals.o)
                              ./gr_common/lib/libstdc++.a(eh_catch.o) (__cxa_get_globals_fast)
./gr_common/lib/libstdc++.a(eh_terminate.o)
                              ./gr_common/lib/libstdc++.a(eh_personality.o) (__cxxabiv1::__terminate(void (*)()))
./gr_common/lib/libstdc++.a(eh_alloc.o)
                              ./gr_common/lib/libstdc++.a(eh_personality.o) (__cxa_allocate_exception)
./gr_common/lib/libstdc++.a(functexcept.o)
                              ./gr_common/lib/libstdc++.a(string-inst.o) (std::__throw_logic_error(char const*))
./gr_common/lib/libstdc++.a(functional.o)
                              ./gr_common/lib/libstdc++.a(functexcept.o) (vtable for std::bad_function_call)
./gr_common/lib/libstdc++.a(ios_failure.o)
                              ./gr_common/lib/libstdc++.a(functexcept.o) (std::ios_base::failure::~failure())
./gr_common/lib/libstdc++.a(stdexcept.o)
                              ./gr_common/lib/libstdc++.a(functexcept.o) (std::logic_error::~logic_error())
./gr_common/lib/libstdc++.a(system_error.o)
                              ./gr_common/lib/libstdc++.a(functexcept.o) (vtable for std::system_error)
./gr_common/lib/libstdc++.a(regex.o)
                              ./gr_common/lib/libstdc++.a(functexcept.o) (typeinfo for std::regex_error)
./gr_common/lib/libstdc++.a(future.o)
                              ./gr_common/lib/libstdc++.a(functexcept.o) (vtable for std::future_error)
./gr_common/lib/libstdc++.a(bad_typeid.o)
                              ./gr_common/lib/libstdc++.a(functexcept.o) (vtable for std::bad_typeid)
./gr_common/lib/libstdc++.a(bad_alloc.o)
                              ./gr_common/lib/libstdc++.a(new_op.o) (vtable for std::bad_alloc)
./gr_common/lib/libstdc++.a(eh_throw.o)
                              ./gr_common/lib/libstdc++.a(eh_personality.o) (__cxa_throw)
./gr_common/lib/libstdc++.a(eh_unex_handler.o)
                              ./gr_common/lib/libstdc++.a(eh_terminate.o) (__cxxabiv1::__unexpected_handler)
./gr_common/lib/libstdc++.a(si_class_type_info.o)
                              ./gr_common/lib/libstdc++.a(eh_exception.o) (vtable for __cxxabiv1::__si_class_type_info)
./gr_common/lib/libstdc++.a(new_handler.o)
                              ./gr_common/lib/libstdc++.a(new_op.o) (__new_handler)
./gr_common/lib/libstdc++.a(bad_cast.o)
                              ./gr_common/lib/libstdc++.a(functexcept.o) (vtable for std::bad_cast)
./gr_common/lib/libstdc++.a(eh_term_handler.o)
                              ./gr_common/lib/libstdc++.a(eh_terminate.o) (__cxxabiv1::__terminate_handler)
./gr_common/lib/libstdc++.a(class_type_info.o)
                              ./gr_common/lib/libstdc++.a(si_class_type_info.o) (__cxxabiv1::__class_type_info::__do_upcast(__cxxabiv1::__class_type_info const*, void**) const)
./gr_common/lib/libstdc++.a(eh_call.o)
                              ./gr_common/lib/libstdc++.a(eh_personality.o) (__cxa_call_terminate)
./gr_common/lib/libstdc++.a(guard.o)
                              ./gr_common/lib/libstdc++.a(future.o) (__cxa_guard_acquire)
./gr_common/lib/libstdc++.a(tinfo.o)
                              ./gr_common/lib/libstdc++.a(class_type_info.o) (std::type_info::~type_info())
./gr_common/lib/libstdc++.a(vterminate.o)
                              ./gr_common/lib/libstdc++.a(eh_term_handler.o) (__gnu_cxx::__verbose_terminate_handler())
./gr_common/lib/libstdc++.a(cp-demangle.o)
                              ./gr_common/lib/libstdc++.a(vterminate.o) (__cxa_demangle)
./gr_common/lib/libstdc++.a(guard_error.o)
                              ./gr_common/lib/libstdc++.a(guard.o) (vtable for __gnu_cxx::recursive_init_error)
./gr_common/lib/libstdc++.a(eh_type.o)
                              ./gr_common/lib/libstdc++.a(vterminate.o) (__cxa_current_exception_type)
./gr_common/lib/libtkdnhal.a(hwsetup.o)
                              ./gr_common/gstart.o (tkdn_hwsetup)
./gr_common/lib/libtkdnhal.a(tkdn_sci.o)
                              ./gr_common/intvect.o (Excep_SCI0_RXI0)
./gr_common/lib/libtkdnhal.a(tkdn_ether.o)
                              ./gr_common/lib/libtkdnhal.a(hwsetup.o) (ether_close)
./gr_common/lib/libtkdnhal.a(tkdn_timer.o)
                              ./gr_common/lib/librxduino.a(delay.o) (timer_wait_ms)
./gr_common/lib/libtkdnhal.a(tkdn_gpio.o)
                              ./gr_common/lib/librxduino.a(digitalio.o) (gpio_set_pinmode)
./gr_common/lib/libtkdnhal.a(tkdn_pwm.o)
                              ./gr_common/lib/librxduino.a(analogio.o) (pwm_init)
./gr_common/lib/libtkdnhal.a(tkdn_tone.o)
                              ./gr_common/intvect.o (Excep_CMT1_CMI1)
./gr_common/lib/libtkdnhal.a(tkdn_adc.o)
                              ./gr_common/lib/librxduino.a(analogio.o) (adc_sample)
./gr_common/lib/libtkdnhal.a(tkdn_dac.o)
                              ./gr_common/lib/librxduino.a(analogio.o) (dac_output)
./gr_common/lib/libtkdnhal.a(phy.o)
                              ./gr_common/lib/libtkdnhal.a(tkdn_ether.o) (phy_stop)
./gr_common/lib/libtkdnhal.a(usb_cdc.o)
                              ./gr_common/lib/libtkdnhal.a(tkdn_sci.o) (TKUSB_Init)
./gr_common/lib/libtkdnhal.a(usb_core.o)
                              ./gr_common/lib/libtkdnhal.a(usb_cdc.o) (USBCORE_Init)
./gr_common/lib/libtkdnhal.a(usb_hal.o)
                              ./gr_common/lib/libtkdnhal.a(tkdn_sci.o) (TKUSB_RecvByte)
./gr_common/lib/libtkdnhal.a(usbdescriptors.o)
                              ./gr_common/lib/libtkdnhal.a(usb_cdc.o) (gStringDescriptorSerialNum)
./gr_common/lib/libtkdnhal.a(tkdn_interrupt.o)
                              ./gr_common/intvect.o (Excep_IRQ0)
./gr_common/lib/libtkdnhal.a(tkdn_servo.o)
                              ./gr_common/intvect.o (Excep_TPU6_TGIA6)
./gr_common/lib/libtkdnhal.a(reboot.o)
                              ./gr_common/lib/librxduino.a(rxduino.o) (system_reboot)
./gr_sakura_ethernet/libethernet.a(libethernet.o)
                              ./gr_sketch.o (TEthernet::begin(unsigned char*))
./gr_sakura_ethernet/libtkdnip.a(tkdnip.o)
                              ./gr_sakura_ethernet/libethernet.a(libethernet.o) (tketh_process)
./gr_sakura_ethernet/libtkdnip.a(arp.o)
                              ./gr_sakura_ethernet/libtkdnip.a(tkdnip.o) (arp_received)
./gr_sakura_ethernet/libtkdnip.a(icmp.o)
                              ./gr_sakura_ethernet/libtkdnip.a(tkdnip.o) (icmp_received)
./gr_sakura_ethernet/libtkdnip.a(dhcpc.o)
                              ./gr_sakura_ethernet/libtkdnip.a(tkdnip.o) (send_dhcp2)
./gr_sakura_ethernet/libtkdnip.a(ethframe.o)
                              ./gr_sakura_ethernet/libtkdnip.a(tkdnip.o) (tketh_ef_alloc_udp)
./gr_sakura_ethernet/libtkdnip.a(tcp.o)
                              ./gr_sakura_ethernet/libtkdnip.a(tkdnip.o) (tketh_tcp_process)
./gr_sakura_ethernet/libtkdnip.a(ip.o)
                              ./gr_sakura_ethernet/libtkdnip.a(icmp.o) (calc_checksum)
./gr_common/lib/\libc.a(lib_a-abort.o)
                              ./gr_common/lib/libstdc++.a(eh_personality.o) (abort)
./gr_common/lib/\libc.a(lib_a-ctype_.o)
                              ./gr_sakura_ethernet/libtkdnip.a(tkdnip.o) (__ctype_ptr__)
./gr_common/lib/\libc.a(lib_a-fputc.o)
                              ./gr_common/lib/libstdc++.a(vterminate.o) (fputc)
./gr_common/lib/\libc.a(lib_a-fputs.o)
                              ./gr_common/lib/libstdc++.a(vterminate.o) (fputs)
./gr_common/lib/\libc.a(lib_a-fvwrite.o)
                              ./gr_common/lib/\libc.a(lib_a-fputs.o) (__sfvwrite_r)
./gr_common/lib/\libc.a(lib_a-fwrite.o)
                              ./gr_common/lib/libstdc++.a(vterminate.o) (fwrite)
./gr_common/lib/\libc.a(lib_a-malloc.o)
                              ./gr_common/lib/libstdc++.a(new_op.o) (malloc)
./gr_common/lib/\libc.a(lib_a-memcmp.o)
                              ./gr_common/lib/libstdc++.a(string-inst.o) (memcmp)
./gr_common/lib/\libc.a(lib_a-putc.o)
                              ./gr_common/lib/\libc.a(lib_a-fputc.o) (_putc_r)
./gr_common/lib/\libc.a(lib_a-realloc.o)
                              ./gr_common/lib/libstdc++.a(cp-demangle.o) (realloc)
./gr_common/lib/\libc.a(lib_a-signal.o)
                              ./gr_common/lib/\libc.a(lib_a-abort.o) (raise)
./gr_common/lib/\libc.a(lib_a-signalr.o)
                              ./gr_common/lib/\libc.a(lib_a-signal.o) (_kill_r)
./gr_common/lib/\libc.a(lib_a-strdup.o)
                              ./gr_sakura_ethernet/libtkdnip.a(tkdnip.o) (strdup)
./gr_common/lib/\libc.a(lib_a-strdup_r.o)
                              ./gr_common/lib/\libc.a(lib_a-strdup.o) (_strdup_r)
./gr_common/lib/\libc.a(lib_a-strerror.o)
                              ./gr_common/lib/libstdc++.a(system_error.o) (strerror)
./gr_common/lib/\libc.a(lib_a-strncpy.o)
                              ./gr_sakura_ethernet/libtkdnip.a(dhcpc.o) (strncpy)
./gr_common/lib/\libc.a(lib_a-u_strerr.o)
                              ./gr_common/lib/\libc.a(lib_a-strerror.o) (_user_strerror)
./gr_common/lib/\libc.a(lib_a-wbuf.o)
                              ./gr_common/lib/\libc.a(lib_a-putc.o) (__swbuf_r)
./gr_common/lib/\libc.a(lib_a-wsetup.o)
                              ./gr_common/lib/\libc.a(lib_a-fvwrite.o) (__swsetup_r)
./gr_common/lib/\libc.a(lib_a-fflush.o)
                              ./gr_common/lib/\libc.a(lib_a-fvwrite.o) (_fflush_r)
./gr_common/lib/\libc.a(lib_a-findfp.o)
                              ./gr_common/lib/\libc.a(lib_a-fputc.o) (__sinit)
./gr_common/lib/\libc.a(lib_a-fwalk.o)
                              ./gr_common/lib/\libc.a(lib_a-findfp.o) (_fwalk)
./gr_common/lib/\libc.a(lib_a-makebuf.o)
                              ./gr_common/lib/\libc.a(lib_a-wsetup.o) (__smakebuf_r)
./gr_common/lib/\libc.a(lib_a-stdio.o)
                              ./gr_common/lib/\libc.a(lib_a-findfp.o) (__sread)
./gr_common/lib/\libc.a(lib_a-writer.o)
                              ./gr_common/lib/\libc.a(lib_a-stdio.o) (_write_r)
./gr_common/lib/\libc.a(lib_a-closer.o)
                              ./gr_common/lib/\libc.a(lib_a-stdio.o) (_close_r)
./gr_common/lib/\libc.a(lib_a-fclose.o)
                              ./gr_common/lib/\libc.a(lib_a-findfp.o) (fclose)
./gr_common/lib/\libc.a(lib_a-fstatr.o)
                              ./gr_common/lib/\libc.a(lib_a-makebuf.o) (_fstat_r)
./gr_common/lib/\libc.a(lib_a-isattyr.o)
                              ./gr_common/lib/\libc.a(lib_a-makebuf.o) (_isatty_r)
./gr_common/lib/\libc.a(lib_a-lseekr.o)
                              ./gr_common/lib/\libc.a(lib_a-stdio.o) (_lseek_r)
./gr_common/lib/\libc.a(lib_a-readr.o)
                              ./gr_common/lib/\libc.a(lib_a-stdio.o) (_read_r)
./gr_common/lib/\libsim.a(exit.o)
                              ./gr_common/lib/\libc.a(lib_a-abort.o) (_exit)
./gr_common/lib/\libsim.a(getpid.o)
                              ./gr_common/lib/\libc.a(lib_a-signalr.o) (getpid)
./gr_common/lib/\libsim.a(kill.o)
                              ./gr_common/lib/\libc.a(lib_a-signalr.o) (kill)
./gr_common/lib/\libgcc.a(unwind-sjlj.o)
                              ./gr_common/lib/libstdc++.a(string-inst.o) (_Unwind_SjLj_Register)

Allocating common symbols
Common symbol       size              file

sci_default         0x21c             ./gr_common/lib/libtkdnhal.a(tkdn_sci.o)
g_dns_records       0x4               ./gr_sakura_ethernet/libtkdnip.a(tkdnip.o)
g_ping_process      0x2               ./gr_sakura_ethernet/libtkdnip.a(icmp.o)
recvpacket          0x4               ./gr_sakura_ethernet/libtkdnip.a(tkdnip.o)
g_packet_received   0x4               ./gr_sakura_ethernet/libtkdnip.a(tkdnip.o)
g_dhcpc_state       0x4               ./gr_sakura_ethernet/libtkdnip.a(dhcpc.o)
user_rx_func        0x4               ./gr_common/lib/libtkdnhal.a(tkdn_ether.o)
sci_handles         0x18              ./gr_common/lib/libtkdnhal.a(tkdn_sci.o)
g_dhcp_dns0         0x4               ./gr_sakura_ethernet/libtkdnip.a(dhcpc.o)
g_dhcp_gateway      0x4               ./gr_sakura_ethernet/libtkdnip.a(dhcpc.o)
ifunc               0x20              ./gr_common/lib/libtkdnhal.a(tkdn_interrupt.o)
g_dhcp_server       0x4               ./gr_sakura_ethernet/libtkdnip.a(dhcpc.o)
g_ping_seq          0x2               ./gr_sakura_ethernet/libtkdnip.a(icmp.o)
g_ipseq             0x4               ./gr_sakura_ethernet/libtkdnip.a(ip.o)
g_dhcp_recv_ip      0x4               ./gr_sakura_ethernet/libtkdnip.a(dhcpc.o)
g_ping_timer        0x4               ./gr_sakura_ethernet/libtkdnip.a(icmp.o)
sendpacket          0x4               ./gr_sakura_ethernet/libtkdnip.a(tkdnip.o)
count               0x4               ./gr_sakura_ethernet/libtkdnip.a(tkdnip.o)
g_dhcp_subnet       0x4               ./gr_sakura_ethernet/libtkdnip.a(dhcpc.o)
errno               0x4               ./gr_common/lib/libc.a(lib_a-reent.o)
tcp_connections     0x2c0             ./gr_sakura_ethernet/libtkdnip.a(tcp.o)
psci_default        0x4               ./gr_common/lib/libtkdnhal.a(tkdn_sci.o)

Discarded input sections

 .group         0x00000000        0x8 ./gr_common/lib/libstdc++.a(string-inst.o)
 .group         0x00000000        0x8 ./gr_common/lib/libstdc++.a(string-inst.o)
 .group         0x00000000        0x8 ./gr_common/lib/libstdc++.a(string-inst.o)
 .group         0x00000000        0x8 ./gr_common/lib/libstdc++.a(string-inst.o)
 .group         0x00000000        0x8 ./gr_common/lib/libstdc++.a(string-inst.o)
 .group         0x00000000        0x8 ./gr_common/lib/libstdc++.a(string-inst.o)
 .group         0x00000000        0x8 ./gr_common/lib/libstdc++.a(string-inst.o)
 .group         0x00000000        0x8 ./gr_common/lib/libstdc++.a(string-inst.o)
 .group         0x00000000        0x8 ./gr_common/lib/libstdc++.a(string-inst.o)
 .group         0x00000000        0x8 ./gr_common/lib/libstdc++.a(string-inst.o)
 .group         0x00000000        0x8 ./gr_common/lib/libstdc++.a(string-inst.o)
 .group         0x00000000        0x8 ./gr_common/lib/libstdc++.a(string-inst.o)
 .group         0x00000000        0x8 ./gr_common/lib/libstdc++.a(string-inst.o)
 .group         0x00000000        0x8 ./gr_common/lib/libstdc++.a(string-inst.o)
 .group         0x00000000        0x8 ./gr_common/lib/libstdc++.a(string-inst.o)
 .group         0x00000000        0x8 ./gr_common/lib/libstdc++.a(string-inst.o)
 .group         0x00000000        0x8 ./gr_common/lib/libstdc++.a(string-inst.o)
 .group         0x00000000        0x8 ./gr_common/lib/libstdc++.a(string-inst.o)
 .group         0x00000000        0x8 ./gr_common/lib/libstdc++.a(string-inst.o)
 .group         0x00000000        0x8 ./gr_common/lib/libstdc++.a(string-inst.o)
 .group         0x00000000        0x8 ./gr_common/lib/libstdc++.a(string-inst.o)
 .group         0x00000000        0x8 ./gr_common/lib/libstdc++.a(string-inst.o)
 .group         0x00000000        0x8 ./gr_common/lib/libstdc++.a(string-inst.o)
 .group         0x00000000        0x8 ./gr_common/lib/libstdc++.a(string-inst.o)
 .group         0x00000000        0x8 ./gr_common/lib/libstdc++.a(string-inst.o)
 .group         0x00000000        0x8 ./gr_common/lib/libstdc++.a(string-inst.o)
 .group         0x00000000        0x8 ./gr_common/lib/libstdc++.a(string-inst.o)
 .group         0x00000000        0x8 ./gr_common/lib/libstdc++.a(string-inst.o)
 .group         0x00000000        0x8 ./gr_common/lib/libstdc++.a(string-inst.o)
 .group         0x00000000        0x8 ./gr_common/lib/libstdc++.a(string-inst.o)
 .group         0x00000000        0x8 ./gr_common/lib/libstdc++.a(string-inst.o)
 .group         0x00000000        0x8 ./gr_common/lib/libstdc++.a(string-inst.o)
 .group         0x00000000        0x8 ./gr_common/lib/libstdc++.a(string-inst.o)
 .group         0x00000000        0x8 ./gr_common/lib/libstdc++.a(string-inst.o)
 .group         0x00000000        0x8 ./gr_common/lib/libstdc++.a(string-inst.o)
 .group         0x00000000        0x8 ./gr_common/lib/libstdc++.a(string-inst.o)
 .group         0x00000000        0x8 ./gr_common/lib/libstdc++.a(string-inst.o)
 .group         0x00000000        0x8 ./gr_common/lib/libstdc++.a(string-inst.o)
 .group         0x00000000        0x8 ./gr_common/lib/libstdc++.a(string-inst.o)
 .group         0x00000000        0x8 ./gr_common/lib/libstdc++.a(string-inst.o)
 .group         0x00000000        0x8 ./gr_common/lib/libstdc++.a(string-inst.o)
 .group         0x00000000        0x8 ./gr_common/lib/libstdc++.a(string-inst.o)
 .group         0x00000000        0x8 ./gr_common/lib/libstdc++.a(string-inst.o)
 .group         0x00000000        0x8 ./gr_common/lib/libstdc++.a(string-inst.o)
 .group         0x00000000        0x8 ./gr_common/lib/libstdc++.a(string-inst.o)
 .group         0x00000000        0x8 ./gr_common/lib/libstdc++.a(string-inst.o)
 .group         0x00000000        0x8 ./gr_common/lib/libstdc++.a(string-inst.o)
 .group         0x00000000        0x8 ./gr_common/lib/libstdc++.a(string-inst.o)
 .group         0x00000000        0x8 ./gr_common/lib/libstdc++.a(string-inst.o)
 .group         0x00000000        0x8 ./gr_common/lib/libstdc++.a(string-inst.o)
 .group         0x00000000        0x8 ./gr_common/lib/libstdc++.a(string-inst.o)
 .group         0x00000000        0x8 ./gr_common/lib/libstdc++.a(string-inst.o)
 .group         0x00000000        0x8 ./gr_common/lib/libstdc++.a(string-inst.o)
 .group         0x00000000        0x8 ./gr_common/lib/libstdc++.a(string-inst.o)
 .group         0x00000000        0x8 ./gr_common/lib/libstdc++.a(string-inst.o)
 .group         0x00000000        0x8 ./gr_common/lib/libstdc++.a(string-inst.o)
 .group         0x00000000        0x8 ./gr_common/lib/libstdc++.a(string-inst.o)
 .group         0x00000000        0x8 ./gr_common/lib/libstdc++.a(string-inst.o)
 .group         0x00000000        0x8 ./gr_common/lib/libstdc++.a(string-inst.o)
 .group         0x00000000        0x8 ./gr_common/lib/libstdc++.a(string-inst.o)
 .group         0x00000000        0x8 ./gr_common/lib/libstdc++.a(string-inst.o)
 .group         0x00000000        0x8 ./gr_common/lib/libstdc++.a(string-inst.o)
 .group         0x00000000        0x8 ./gr_common/lib/libstdc++.a(string-inst.o)
 .group         0x00000000        0x8 ./gr_common/lib/libstdc++.a(string-inst.o)
 .group         0x00000000        0x8 ./gr_common/lib/libstdc++.a(string-inst.o)
 .group         0x00000000        0x8 ./gr_common/lib/libstdc++.a(string-inst.o)
 .group         0x00000000        0x8 ./gr_common/lib/libstdc++.a(string-inst.o)
 .group         0x00000000        0x8 ./gr_common/lib/libstdc++.a(string-inst.o)
 .group         0x00000000        0x8 ./gr_common/lib/libstdc++.a(string-inst.o)
 .group         0x00000000        0x8 ./gr_common/lib/libstdc++.a(string-inst.o)
 .group         0x00000000        0x8 ./gr_common/lib/libstdc++.a(string-inst.o)
 .group         0x00000000        0x8 ./gr_common/lib/libstdc++.a(string-inst.o)
 .group         0x00000000        0x8 ./gr_common/lib/libstdc++.a(string-inst.o)
 .group         0x00000000        0x8 ./gr_common/lib/libstdc++.a(string-inst.o)
 .group         0x00000000        0x8 ./gr_common/lib/libstdc++.a(string-inst.o)
 .group         0x00000000        0x8 ./gr_common/lib/libstdc++.a(string-inst.o)
 .group         0x00000000        0x8 ./gr_common/lib/libstdc++.a(string-inst.o)
 .group         0x00000000        0x8 ./gr_common/lib/libstdc++.a(string-inst.o)
 .group         0x00000000        0x8 ./gr_common/lib/libstdc++.a(string-inst.o)
 .group         0x00000000        0x8 ./gr_common/lib/libstdc++.a(string-inst.o)
 .group         0x00000000        0x8 ./gr_common/lib/libstdc++.a(string-inst.o)
 .group         0x00000000        0x8 ./gr_common/lib/libstdc++.a(string-inst.o)
 .group         0x00000000        0x8 ./gr_common/lib/libstdc++.a(string-inst.o)
 .group         0x00000000        0x8 ./gr_common/lib/libstdc++.a(string-inst.o)
 .group         0x00000000        0x8 ./gr_common/lib/libstdc++.a(string-inst.o)
 .group         0x00000000        0x8 ./gr_common/lib/libstdc++.a(string-inst.o)
 .group         0x00000000        0x8 ./gr_common/lib/libstdc++.a(string-inst.o)
 .group         0x00000000        0x8 ./gr_common/lib/libstdc++.a(string-inst.o)
 .group         0x00000000        0x8 ./gr_common/lib/libstdc++.a(string-inst.o)
 .group         0x00000000        0x8 ./gr_common/lib/libstdc++.a(string-inst.o)
 .group         0x00000000        0x8 ./gr_common/lib/libstdc++.a(string-inst.o)
 .group         0x00000000        0x8 ./gr_common/lib/libstdc++.a(string-inst.o)
 .group         0x00000000        0x8 ./gr_common/lib/libstdc++.a(string-inst.o)
 .group         0x00000000        0x8 ./gr_common/lib/libstdc++.a(string-inst.o)
 .group         0x00000000        0x8 ./gr_common/lib/libstdc++.a(string-inst.o)
 .group         0x00000000        0x8 ./gr_common/lib/libstdc++.a(string-inst.o)
 .group         0x00000000        0x8 ./gr_common/lib/libstdc++.a(string-inst.o)
 .group         0x00000000        0x8 ./gr_common/lib/libstdc++.a(string-inst.o)
 .group         0x00000000        0x8 ./gr_common/lib/libstdc++.a(string-inst.o)
 .group         0x00000000        0x8 ./gr_common/lib/libstdc++.a(string-inst.o)
 .group         0x00000000        0x8 ./gr_common/lib/libstdc++.a(string-inst.o)
 .group         0x00000000        0x8 ./gr_common/lib/libstdc++.a(string-inst.o)
 .group         0x00000000        0x8 ./gr_common/lib/libstdc++.a(string-inst.o)
 .group         0x00000000        0x8 ./gr_common/lib/libstdc++.a(string-inst.o)
 .group         0x00000000        0x8 ./gr_common/lib/libstdc++.a(string-inst.o)
 .group         0x00000000        0x8 ./gr_common/lib/libstdc++.a(string-inst.o)
 .group         0x00000000        0x8 ./gr_common/lib/libstdc++.a(string-inst.o)
 .group         0x00000000        0x8 ./gr_common/lib/libstdc++.a(string-inst.o)
 .group         0x00000000        0x8 ./gr_common/lib/libstdc++.a(string-inst.o)
 .group         0x00000000        0x8 ./gr_common/lib/libstdc++.a(string-inst.o)
 .group         0x00000000        0x8 ./gr_common/lib/libstdc++.a(string-inst.o)
 .group         0x00000000        0x8 ./gr_common/lib/libstdc++.a(string-inst.o)
 .group         0x00000000        0x8 ./gr_common/lib/libstdc++.a(string-inst.o)
 .group         0x00000000        0x8 ./gr_common/lib/libstdc++.a(string-inst.o)
 .group         0x00000000        0x8 ./gr_common/lib/libstdc++.a(string-inst.o)
 .group         0x00000000        0x8 ./gr_common/lib/libstdc++.a(string-inst.o)
 .group         0x00000000        0x8 ./gr_common/lib/libstdc++.a(string-inst.o)
 .group         0x00000000        0x8 ./gr_common/lib/libstdc++.a(string-inst.o)
 .group         0x00000000        0x8 ./gr_common/lib/libstdc++.a(string-inst.o)
 .group         0x00000000        0x8 ./gr_common/lib/libstdc++.a(string-inst.o)
 .group         0x00000000        0x8 ./gr_common/lib/libstdc++.a(string-inst.o)
 .group         0x00000000        0x8 ./gr_common/lib/libstdc++.a(string-inst.o)
 .group         0x00000000        0x8 ./gr_common/lib/libstdc++.a(string-inst.o)
 .group         0x00000000        0x8 ./gr_common/lib/libstdc++.a(string-inst.o)
 .group         0x00000000        0x8 ./gr_common/lib/libstdc++.a(string-inst.o)
 .group         0x00000000        0x8 ./gr_common/lib/libstdc++.a(string-inst.o)
 .group         0x00000000        0x8 ./gr_common/lib/libstdc++.a(string-inst.o)
 .group         0x00000000        0x8 ./gr_common/lib/libstdc++.a(string-inst.o)
 .group         0x00000000        0x8 ./gr_common/lib/libstdc++.a(string-inst.o)
 .group         0x00000000        0x8 ./gr_common/lib/libstdc++.a(string-inst.o)
 .group         0x00000000        0x8 ./gr_common/lib/libstdc++.a(string-inst.o)
 .group         0x00000000        0x8 ./gr_common/lib/libstdc++.a(string-inst.o)
 .group         0x00000000        0x8 ./gr_common/lib/libstdc++.a(string-inst.o)
 .group         0x00000000        0x8 ./gr_common/lib/libstdc++.a(string-inst.o)
 .group         0x00000000        0x8 ./gr_common/lib/libstdc++.a(string-inst.o)
 .group         0x00000000        0x8 ./gr_common/lib/libstdc++.a(string-inst.o)
 .group         0x00000000        0x8 ./gr_common/lib/libstdc++.a(string-inst.o)
 .group         0x00000000        0x8 ./gr_common/lib/libstdc++.a(string-inst.o)
 .group         0x00000000        0x8 ./gr_common/lib/libstdc++.a(string-inst.o)
 .group         0x00000000        0x8 ./gr_common/lib/libstdc++.a(string-inst.o)
 .group         0x00000000        0x8 ./gr_common/lib/libstdc++.a(string-inst.o)
 .group         0x00000000        0x8 ./gr_common/lib/libstdc++.a(string-inst.o)
 .group         0x00000000        0x8 ./gr_common/lib/libstdc++.a(string-inst.o)
 .group         0x00000000        0x8 ./gr_common/lib/libstdc++.a(string-inst.o)
 .group         0x00000000        0x8 ./gr_common/lib/libstdc++.a(string-inst.o)
 .group         0x00000000        0x8 ./gr_common/lib/libstdc++.a(string-inst.o)
 .group         0x00000000        0x8 ./gr_common/lib/libstdc++.a(string-inst.o)
 .group         0x00000000        0x8 ./gr_common/lib/libstdc++.a(string-inst.o)
 .group         0x00000000        0x8 ./gr_common/lib/libstdc++.a(string-inst.o)
 .group         0x00000000        0x8 ./gr_common/lib/libstdc++.a(string-inst.o)
 .group         0x00000000        0x8 ./gr_common/lib/libstdc++.a(string-inst.o)
 .group         0x00000000        0x8 ./gr_common/lib/libstdc++.a(string-inst.o)
 .group         0x00000000        0x8 ./gr_common/lib/libstdc++.a(string-inst.o)
 .group         0x00000000        0x8 ./gr_common/lib/libstdc++.a(string-inst.o)
 .group         0x00000000        0x8 ./gr_common/lib/libstdc++.a(string-inst.o)
 .group         0x00000000        0x8 ./gr_common/lib/libstdc++.a(string-inst.o)
 .group         0x00000000        0x8 ./gr_common/lib/libstdc++.a(string-inst.o)
 .group         0x00000000        0x8 ./gr_common/lib/libstdc++.a(string-inst.o)
 .group         0x00000000        0x8 ./gr_common/lib/libstdc++.a(string-inst.o)
 .group         0x00000000        0x8 ./gr_common/lib/libstdc++.a(string-inst.o)
 .group         0x00000000        0x8 ./gr_common/lib/libstdc++.a(string-inst.o)
 .group         0x00000000        0x8 ./gr_common/lib/libstdc++.a(string-inst.o)
 .group         0x00000000        0x8 ./gr_common/lib/libstdc++.a(string-inst.o)
 .group         0x00000000        0x8 ./gr_common/lib/libstdc++.a(string-inst.o)
 .group         0x00000000        0x8 ./gr_common/lib/libstdc++.a(string-inst.o)
 .group         0x00000000        0x8 ./gr_common/lib/libstdc++.a(string-inst.o)
 .group         0x00000000        0x8 ./gr_common/lib/libstdc++.a(string-inst.o)
 .group         0x00000000        0x8 ./gr_common/lib/libstdc++.a(string-inst.o)
 .group         0x00000000        0x8 ./gr_common/lib/libstdc++.a(string-inst.o)
 .group         0x00000000        0x8 ./gr_common/lib/libstdc++.a(string-inst.o)
 .group         0x00000000        0x8 ./gr_common/lib/libstdc++.a(string-inst.o)
 .group         0x00000000        0x8 ./gr_common/lib/libstdc++.a(string-inst.o)
 .group         0x00000000        0x8 ./gr_common/lib/libstdc++.a(string-inst.o)
 .group         0x00000000        0x8 ./gr_common/lib/libstdc++.a(string-inst.o)
 .group         0x00000000        0x8 ./gr_common/lib/libstdc++.a(string-inst.o)
 .group         0x00000000        0x8 ./gr_common/lib/libstdc++.a(string-inst.o)
 .group         0x00000000        0x8 ./gr_common/lib/libstdc++.a(string-inst.o)
 .group         0x00000000        0x8 ./gr_common/lib/libstdc++.a(string-inst.o)
 .group         0x00000000        0x8 ./gr_common/lib/libstdc++.a(string-inst.o)
 .group         0x00000000        0x8 ./gr_common/lib/libstdc++.a(eh_exception.o)
 .group         0x00000000        0x8 ./gr_common/lib/libstdc++.a(eh_exception.o)
 .group         0x00000000        0x8 ./gr_common/lib/libstdc++.a(eh_exception.o)
 .group         0x00000000        0x8 ./gr_common/lib/libstdc++.a(eh_exception.o)
 .group         0x00000000        0x8 ./gr_common/lib/libstdc++.a(eh_exception.o)
 .group         0x00000000        0x8 ./gr_common/lib/libstdc++.a(eh_exception.o)
 .group         0x00000000        0x8 ./gr_common/lib/libstdc++.a(eh_exception.o)
 .group         0x00000000        0x8 ./gr_common/lib/libstdc++.a(eh_exception.o)
 .group         0x00000000        0x8 ./gr_common/lib/libstdc++.a(eh_exception.o)
 .group         0x00000000        0x8 ./gr_common/lib/libstdc++.a(eh_exception.o)
 .group         0x00000000        0x8 ./gr_common/lib/libstdc++.a(eh_exception.o)
 .group         0x00000000        0x8 ./gr_common/lib/libstdc++.a(eh_exception.o)
 .group         0x00000000        0x8 ./gr_common/lib/libstdc++.a(functional.o)
 .group         0x00000000        0x8 ./gr_common/lib/libstdc++.a(functional.o)
 .group         0x00000000        0x8 ./gr_common/lib/libstdc++.a(functional.o)
 .group         0x00000000        0x8 ./gr_common/lib/libstdc++.a(ios_failure.o)
 .group         0x00000000        0x8 ./gr_common/lib/libstdc++.a(ios_failure.o)
 .group         0x00000000        0x8 ./gr_common/lib/libstdc++.a(ios_failure.o)
 .group         0x00000000        0x8 ./gr_common/lib/libstdc++.a(stdexcept.o)
 .group         0x00000000        0x8 ./gr_common/lib/libstdc++.a(stdexcept.o)
 .group         0x00000000        0x8 ./gr_common/lib/libstdc++.a(stdexcept.o)
 .group         0x00000000        0x8 ./gr_common/lib/libstdc++.a(stdexcept.o)
 .group         0x00000000        0x8 ./gr_common/lib/libstdc++.a(stdexcept.o)
 .group         0x00000000        0x8 ./gr_common/lib/libstdc++.a(stdexcept.o)
 .group         0x00000000        0x8 ./gr_common/lib/libstdc++.a(stdexcept.o)
 .group         0x00000000        0x8 ./gr_common/lib/libstdc++.a(stdexcept.o)
 .group         0x00000000        0x8 ./gr_common/lib/libstdc++.a(stdexcept.o)
 .group         0x00000000        0x8 ./gr_common/lib/libstdc++.a(stdexcept.o)
 .group         0x00000000        0x8 ./gr_common/lib/libstdc++.a(stdexcept.o)
 .group         0x00000000        0x8 ./gr_common/lib/libstdc++.a(stdexcept.o)
 .group         0x00000000        0x8 ./gr_common/lib/libstdc++.a(stdexcept.o)
 .group         0x00000000        0x8 ./gr_common/lib/libstdc++.a(stdexcept.o)
 .group         0x00000000        0x8 ./gr_common/lib/libstdc++.a(stdexcept.o)
 .group         0x00000000        0x8 ./gr_common/lib/libstdc++.a(stdexcept.o)
 .group         0x00000000        0x8 ./gr_common/lib/libstdc++.a(stdexcept.o)
 .group         0x00000000        0x8 ./gr_common/lib/libstdc++.a(stdexcept.o)
 .group         0x00000000        0x8 ./gr_common/lib/libstdc++.a(stdexcept.o)
 .group         0x00000000        0x8 ./gr_common/lib/libstdc++.a(stdexcept.o)
 .group         0x00000000        0x8 ./gr_common/lib/libstdc++.a(stdexcept.o)
 .group         0x00000000        0x8 ./gr_common/lib/libstdc++.a(stdexcept.o)
 .group         0x00000000        0x8 ./gr_common/lib/libstdc++.a(stdexcept.o)
 .group         0x00000000        0x8 ./gr_common/lib/libstdc++.a(stdexcept.o)
 .group         0x00000000        0x8 ./gr_common/lib/libstdc++.a(stdexcept.o)
 .group         0x00000000        0x8 ./gr_common/lib/libstdc++.a(stdexcept.o)
 .group         0x00000000        0x8 ./gr_common/lib/libstdc++.a(stdexcept.o)
 .group         0x00000000        0x8 ./gr_common/lib/libstdc++.a(system_error.o)
 .group         0x00000000        0x8 ./gr_common/lib/libstdc++.a(system_error.o)
 .group         0x00000000        0x8 ./gr_common/lib/libstdc++.a(system_error.o)
 .group         0x00000000        0x8 ./gr_common/lib/libstdc++.a(system_error.o)
 .group         0x00000000        0x8 ./gr_common/lib/libstdc++.a(system_error.o)
 .group         0x00000000        0x8 ./gr_common/lib/libstdc++.a(system_error.o)
 .group         0x00000000        0x8 ./gr_common/lib/libstdc++.a(regex.o)
 .group         0x00000000        0x8 ./gr_common/lib/libstdc++.a(regex.o)
 .group         0x00000000        0x8 ./gr_common/lib/libstdc++.a(regex.o)
 .group         0x00000000        0x8 ./gr_common/lib/libstdc++.a(future.o)
 .group         0x00000000        0x8 ./gr_common/lib/libstdc++.a(future.o)
 .group         0x00000000        0x8 ./gr_common/lib/libstdc++.a(future.o)
 .group         0x00000000        0x8 ./gr_common/lib/libstdc++.a(bad_typeid.o)
 .group         0x00000000        0x8 ./gr_common/lib/libstdc++.a(bad_typeid.o)
 .group         0x00000000        0x8 ./gr_common/lib/libstdc++.a(bad_typeid.o)
 .group         0x00000000        0x8 ./gr_common/lib/libstdc++.a(bad_alloc.o)
 .group         0x00000000        0x8 ./gr_common/lib/libstdc++.a(bad_alloc.o)
 .group         0x00000000        0x8 ./gr_common/lib/libstdc++.a(bad_alloc.o)
 .group         0x00000000        0x8 ./gr_common/lib/libstdc++.a(si_class_type_info.o)
 .group         0x00000000        0x8 ./gr_common/lib/libstdc++.a(si_class_type_info.o)
 .group         0x00000000        0x8 ./gr_common/lib/libstdc++.a(si_class_type_info.o)
 .group         0x00000000        0x8 ./gr_common/lib/libstdc++.a(bad_cast.o)
 .group         0x00000000        0x8 ./gr_common/lib/libstdc++.a(bad_cast.o)
 .group         0x00000000        0x8 ./gr_common/lib/libstdc++.a(bad_cast.o)
 .group         0x00000000        0x8 ./gr_common/lib/libstdc++.a(class_type_info.o)
 .group         0x00000000        0x8 ./gr_common/lib/libstdc++.a(class_type_info.o)
 .group         0x00000000        0x8 ./gr_common/lib/libstdc++.a(class_type_info.o)
 .group         0x00000000        0x8 ./gr_common/lib/libstdc++.a(tinfo.o)
 .group         0x00000000        0x8 ./gr_common/lib/libstdc++.a(tinfo.o)
 .group         0x00000000        0x8 ./gr_common/lib/libstdc++.a(tinfo.o)
 .group         0x00000000        0x8 ./gr_common/lib/libstdc++.a(guard_error.o)
 .group         0x00000000        0x8 ./gr_common/lib/libstdc++.a(guard_error.o)
 .group         0x00000000        0x8 ./gr_common/lib/libstdc++.a(guard_error.o)

Memory Configuration

Name             Origin             Length             Attributes
*default*        0x00000000         0xffffffff

Linker script and memory map

LOAD ./gr_common/gstart.o
LOAD ./gr_sketch.o
LOAD ./gr_common/intvect.o
LOAD ./gr_common/lowlevel.o
LOAD ./gr_common/lib/libc.a
LOAD ./gr_common/lib/libg.a
LOAD ./gr_common/lib/libgcc.a
LOAD ./gr_common/lib/libm.a
LOAD ./gr_common/lib/librxduino.a
LOAD ./gr_common/lib/libsim.a
LOAD ./gr_common/lib/libstdc++.a
LOAD ./gr_common/lib/libsupc++.a
LOAD ./gr_common/lib/libtkdnhal.a
LOAD ./gr_sakura_ethernet/libethernet.a
LOAD ./gr_sakura_ethernet/libtkdnip.a
LOAD ./gr_common/lib/\librxduino.a
LOAD ./gr_common/lib/\libstdc++.a
LOAD ./gr_common/lib/\libsupc++.a
LOAD ./gr_common/lib/\libc.a
LOAD ./gr_common/lib/\libsim.a
LOAD ./gr_common/lib/\libgcc.a
LOAD ./gr_common/lib/\libm.a
LOAD ./gr_common/lib/\libtkdnhal.a

.text           0xfff00000    0x156b0
 ./gr_common/gstart.o(P)
 P              0xfff00000       0x90 ./gr_common/gstart.o
                0xfff00000                start
                0xfff00000                PowerON_Reset_PC
                0xfff0008e                _rx_fini
                0xfff0008f                __cxa_atexit
 *(.text)
 .text          0xfff00090        0xf ./gr_common/lib/libc.a(lib_a-memchr.o)
                0xfff00090                memchr
 .text          0xfff0009f        0x7 ./gr_common/lib/libc.a(lib_a-memcpy.o)
                0xfff0009f                memcpy
 .text          0xfff000a6        0xf ./gr_common/lib/libc.a(lib_a-strcmp.o)
                0xfff000a6                strcmp
 .text          0xfff000b5       0x10 ./gr_common/lib/libc.a(lib_a-strlen.o)
                0xfff000b5                strlen
 .text          0xfff000c5       0x17 ./gr_common/lib/libc.a(lib_a-memmove.o)
                0xfff000c5                memmove
 .text          0xfff000dc        0x7 ./gr_common/lib/libc.a(lib_a-memset.o)
                0xfff000dc                memset
 .text          0xfff000e3       0x15 ./gr_common/lib/\libc.a(lib_a-strncpy.o)
                0xfff000e3                strncpy
 *(.text.*)
 .text.startup  0xfff000f8       0x1e ./gr_sketch.o
 .text.__errno  0xfff00116        0x9 ./gr_common/lib/libc.a(lib_a-errno.o)
                0xfff00116                __errno
 .text._sprintf_r
                0xfff0011f       0x33 ./gr_common/lib/libc.a(lib_a-sprintf.o)
                0xfff0011f                _sprintf_r
 .text.sprintf  0xfff00152       0x3b ./gr_common/lib/libc.a(lib_a-sprintf.o)
                0xfff00152                sprintf
 *fill*         0xfff0018d        0x1 00
 .text._svfprintf_r
                0xfff0018e      0xfee ./gr_common/lib/libc.a(lib_a-svfprintf.o)
                0xfff0018e                _svfprintf_r
 .text.quorem   0xfff0117c      0x11a ./gr_common/lib/libc.a(lib_a-dtoa.o)
 .text._dtoa_r  0xfff01296      0x98c ./gr_common/lib/libc.a(lib_a-dtoa.o)
                0xfff01296                _dtoa_r
 .text._setlocale_r
                0xfff01c22       0x4a ./gr_common/lib/libc.a(lib_a-locale.o)
                0xfff01c22                _setlocale_r
 .text.__locale_charset
                0xfff01c6c        0x7 ./gr_common/lib/libc.a(lib_a-locale.o)
                0xfff01c6c                __locale_charset
 .text.__locale_mb_cur_max
                0xfff01c73        0x9 ./gr_common/lib/libc.a(lib_a-locale.o)
                0xfff01c73                __locale_mb_cur_max
 .text.__locale_msgcharset
                0xfff01c7c        0x7 ./gr_common/lib/libc.a(lib_a-locale.o)
                0xfff01c7c                __locale_msgcharset
 .text.__locale_cjk_lang
                0xfff01c83        0x3 ./gr_common/lib/libc.a(lib_a-locale.o)
                0xfff01c83                __locale_cjk_lang
 .text._localeconv_r
                0xfff01c86        0x7 ./gr_common/lib/libc.a(lib_a-locale.o)
                0xfff01c86                _localeconv_r
 .text.setlocale
                0xfff01c8d       0x12 ./gr_common/lib/libc.a(lib_a-locale.o)
                0xfff01c8d                setlocale
 .text.localeconv
                0xfff01c9f        0x7 ./gr_common/lib/libc.a(lib_a-locale.o)
                0xfff01c9f                localeconv
 .text._malloc_r
                0xfff01ca6      0x490 ./gr_common/lib/libc.a(lib_a-mallocr.o)
                0xfff01ca6                _malloc_r
 .text.__malloc_lock
                0xfff02136        0x1 ./gr_common/lib/libc.a(lib_a-mlock.o)
                0xfff02136                __malloc_lock
 .text.__malloc_unlock
                0xfff02137        0x1 ./gr_common/lib/libc.a(lib_a-mlock.o)
                0xfff02137                __malloc_unlock
 .text._Balloc  0xfff02138       0x54 ./gr_common/lib/libc.a(lib_a-mprec.o)
                0xfff02138                _Balloc
 .text._Bfree   0xfff0218c       0x1a ./gr_common/lib/libc.a(lib_a-mprec.o)
                0xfff0218c                _Bfree
 .text.__multadd
                0xfff021a6       0x7c ./gr_common/lib/libc.a(lib_a-mprec.o)
                0xfff021a6                __multadd
 .text.__s2b    0xfff02222       0x80 ./gr_common/lib/libc.a(lib_a-mprec.o)
                0xfff02222                __s2b
 .text.__hi0bits
                0xfff022a2       0x4a ./gr_common/lib/libc.a(lib_a-mprec.o)
                0xfff022a2                __hi0bits
 .text.__lo0bits
                0xfff022ec       0x66 ./gr_common/lib/libc.a(lib_a-mprec.o)
                0xfff022ec                __lo0bits
 .text.__i2b    0xfff02352       0x12 ./gr_common/lib/libc.a(lib_a-mprec.o)
                0xfff02352                __i2b
 .text.__multiply
                0xfff02364      0x11a ./gr_common/lib/libc.a(lib_a-mprec.o)
                0xfff02364                __multiply
 .text.__pow5mult
                0xfff0247e       0x88 ./gr_common/lib/libc.a(lib_a-mprec.o)
                0xfff0247e                __pow5mult
 .text.__lshift
                0xfff02506       0x9e ./gr_common/lib/libc.a(lib_a-mprec.o)
                0xfff02506                __lshift
 .text.__mcmp   0xfff025a4       0x2c ./gr_common/lib/libc.a(lib_a-mprec.o)
                0xfff025a4                __mcmp
 .text.__mdiff  0xfff025d0       0xd4 ./gr_common/lib/libc.a(lib_a-mprec.o)
                0xfff025d0                __mdiff
 .text.__ulp    0xfff026a4       0x27 ./gr_common/lib/libc.a(lib_a-mprec.o)
                0xfff026a4                __ulp
 *fill*         0xfff026cb        0x1 00
 .text.__b2d    0xfff026cc       0x6a ./gr_common/lib/libc.a(lib_a-mprec.o)
                0xfff026cc                __b2d
 .text.__d2b    0xfff02736       0x6a ./gr_common/lib/libc.a(lib_a-mprec.o)
                0xfff02736                __d2b
 .text.__ratio  0xfff027a0       0x42 ./gr_common/lib/libc.a(lib_a-mprec.o)
                0xfff027a0                __ratio
 .text._mprec_log10
                0xfff027e2       0x24 ./gr_common/lib/libc.a(lib_a-mprec.o)
                0xfff027e2                _mprec_log10
 .text.__copybits
                0xfff02806       0x32 ./gr_common/lib/libc.a(lib_a-mprec.o)
                0xfff02806                __copybits
 .text.__any_on
                0xfff02838       0x40 ./gr_common/lib/libc.a(lib_a-mprec.o)
                0xfff02838                __any_on
 .text._sbrk_r  0xfff02878       0x22 ./gr_common/lib/libc.a(lib_a-sbrkr.o)
                0xfff02878                _sbrk_r
 .text.__fpclassifyf
                0xfff0289a       0x5c ./gr_common/lib/libc.a(lib_a-sf_fpclassify.o)
                0xfff0289a                __fpclassifyf
 .text.__ssprint_r
                0xfff028f6       0xfe ./gr_common/lib/libc.a(lib_a-svfiprintf.o)
                0xfff028f6                __ssprint_r
 .text._svfiprintf_r
                0xfff029f4      0x8da ./gr_common/lib/libc.a(lib_a-svfiprintf.o)
                0xfff029f4                _svfiprintf_r
 .text._calloc_r
                0xfff032ce       0x66 ./gr_common/lib/libc.a(lib_a-callocr.o)
                0xfff032ce                _calloc_r
 .text._malloc_trim_r
                0xfff03334       0xa4 ./gr_common/lib/libc.a(lib_a-freer.o)
                0xfff03334                _malloc_trim_r
 .text._free_r  0xfff033d8      0x19e ./gr_common/lib/libc.a(lib_a-freer.o)
                0xfff033d8                _free_r
 .text._realloc_r
                0xfff03576      0x378 ./gr_common/lib/libc.a(lib_a-reallocr.o)
                0xfff03576                _realloc_r
 .text.cleanup_glue
                0xfff038ee       0x1a ./gr_common/lib/libc.a(lib_a-reent.o)
                0xfff038ee                cleanup_glue
 .text._reclaim_reent
                0xfff03908       0xa0 ./gr_common/lib/libc.a(lib_a-reent.o)
                0xfff03908                _reclaim_reent
 .text._wrapup_reent
                0xfff039a8       0x40 ./gr_common/lib/libc.a(lib_a-reent.o)
                0xfff039a8                _wrapup_reent
 .text.fmodf    0xfff039e8       0x8c ./gr_common/lib/libm.a(lib_a-wf_fmod.o)
                0xfff039e8                fmodf
 .text.fmod     0xfff03a74        0x4 ./gr_common/lib/libm.a(lib_a-wf_fmod.o)
                0xfff03a74                fmod
 .text.__ieee754_fmodf
                0xfff03a78      0x10e ./gr_common/lib/libm.a(lib_a-ef_fmod.o)
                0xfff03a78                __ieee754_fmodf
 .text.matherr  0xfff03b86        0x3 ./gr_common/lib/libm.a(lib_a-s_matherr.o)
                0xfff03b86                matherr
 *fill*         0xfff03b89        0x7 00
 .text.startup  0xfff03b90       0x20 ./gr_common/lib/librxduino.a(rxduino.o)
                0xfff03b90                main
 .text._ZNKSs4dataEv
                0xfff03bb0        0x3 ./gr_common/lib/libstdc++.a(string-inst.o)
                0xfff03bb0                std::string::data() const
 .text._ZNKSs6lengthEv
                0xfff03bb3        0x7 ./gr_common/lib/libstdc++.a(string-inst.o)
                0xfff03bb3                std::string::length() const
 .text._ZNKSs7_M_dataEv
                0xfff03bba        0x3 ./gr_common/lib/libstdc++.a(string-inst.o)
                0xfff03bba                std::string::_M_data() const
 .text._ZNSs7_M_dataEPc
                0xfff03bbd        0x5 ./gr_common/lib/libstdc++.a(string-inst.o)
                0xfff03bbd                std::string::_M_data(char*)
 .text._ZNKSs6_M_repEv
                0xfff03bc2        0x5 ./gr_common/lib/libstdc++.a(string-inst.o)
                0xfff03bc2                std::string::_M_rep() const
 .text._ZNKSs9_M_ibeginEv
                0xfff03bc7        0x3 ./gr_common/lib/libstdc++.a(string-inst.o)
                0xfff03bc7                std::string::_M_ibegin() const
 .text._ZNKSs7_M_iendEv
                0xfff03bca        0x9 ./gr_common/lib/libstdc++.a(string-inst.o)
                0xfff03bca                std::string::_M_iend() const
 .text._ZNKSs8_M_checkEmPKc
                0xfff03bd3       0x12 ./gr_common/lib/libstdc++.a(string-inst.o)
                0xfff03bd3                std::string::_M_check(unsigned long, char const*) const
 .text._ZNKSs15_M_check_lengthEmmPKc
                0xfff03be5       0x18 ./gr_common/lib/libstdc++.a(string-inst.o)
                0xfff03be5                std::string::_M_check_length(unsigned long, unsigned long, char const*) const
 .text._ZNKSs8_M_limitEmm
                0xfff03bfd        0xf ./gr_common/lib/libstdc++.a(string-inst.o)
                0xfff03bfd                std::string::_M_limit(unsigned long, unsigned long) const
 .text._ZNKSs11_M_disjunctEPKc
                0xfff03c0c       0x21 ./gr_common/lib/libstdc++.a(string-inst.o)
                0xfff03c0c                std::string::_M_disjunct(char const*) const
 .text._ZNSs7_M_copyEPcPKcm
                0xfff03c2d        0xb ./gr_common/lib/libstdc++.a(string-inst.o)
                0xfff03c2d                std::string::_M_copy(char*, char const*, unsigned long)
 .text._ZNSs7_M_moveEPcPKcm
                0xfff03c38        0xc ./gr_common/lib/libstdc++.a(string-inst.o)
                0xfff03c38                std::string::_M_move(char*, char const*, unsigned long)
 .text._ZNSs9_M_assignEPcmc
                0xfff03c44       0x11 ./gr_common/lib/libstdc++.a(string-inst.o)
                0xfff03c44                std::string::_M_assign(char*, unsigned long, char)
 .text._ZNSs13_S_copy_charsEPcN9__gnu_cxx17__normal_iteratorIS_SsEES2_
                0xfff03c55        0xd ./gr_common/lib/libstdc++.a(string-inst.o)
                0xfff03c55                std::string::_S_copy_chars(char*, __gnu_cxx::__normal_iterator<char*, std::string>, __gnu_cxx::__normal_iterator<char*, std::string>)
 .text._ZNSs13_S_copy_charsEPcN9__gnu_cxx17__normal_iteratorIPKcSsEES4_
                0xfff03c62        0xd ./gr_common/lib/libstdc++.a(string-inst.o)
                0xfff03c62                std::string::_S_copy_chars(char*, __gnu_cxx::__normal_iterator<char const*, std::string>, __gnu_cxx::__normal_iterator<char const*, std::string>)
 .text._ZNSs13_S_copy_charsEPcS_S_
                0xfff03c6f        0xd ./gr_common/lib/libstdc++.a(string-inst.o)
                0xfff03c6f                std::string::_S_copy_chars(char*, char*, char*)
 .text._ZNSs13_S_copy_charsEPcPKcS1_
                0xfff03c7c        0xd ./gr_common/lib/libstdc++.a(string-inst.o)
                0xfff03c7c                std::string::_S_copy_chars(char*, char const*, char const*)
 .text._ZNSs10_S_compareEmm
                0xfff03c89        0x3 ./gr_common/lib/libstdc++.a(string-inst.o)
                0xfff03c89                std::string::_S_compare(unsigned long, unsigned long)
 .text._ZNSs12_S_empty_repEv
                0xfff03c8c        0x7 ./gr_common/lib/libstdc++.a(string-inst.o)
                0xfff03c8c                std::string::_S_empty_rep()
 .text._ZNSsC2Ev
                0xfff03c93        0x7 ./gr_common/lib/libstdc++.a(string-inst.o)
                0xfff03c93                std::basic_string<char, std::char_traits<char>, std::allocator<char> >::basic_string()
                0xfff03c93                std::basic_string<char, std::char_traits<char>, std::allocator<char> >::basic_string()
 .text._ZNSsC2EOSs
                0xfff03c9a        0xf ./gr_common/lib/libstdc++.a(string-inst.o)
                0xfff03c9a                std::basic_string<char, std::char_traits<char>, std::allocator<char> >::basic_string(std::string&&)
                0xfff03c9a                std::basic_string<char, std::char_traits<char>, std::allocator<char> >::basic_string(std::string&&)
 .text._ZNKSs5beginEv
                0xfff03ca9        0x3 ./gr_common/lib/libstdc++.a(string-inst.o)
                0xfff03ca9                std::string::begin() const
 .text._ZNKSs3endEv
                0xfff03cac        0x9 ./gr_common/lib/libstdc++.a(string-inst.o)
                0xfff03cac                std::string::end() const
 .text._ZNKSs6rbeginEv
                0xfff03cb5        0xd ./gr_common/lib/libstdc++.a(string-inst.o)
                0xfff03cb5                std::string::rbegin() const
 .text._ZNKSs4rendEv
                0xfff03cc2        0x7 ./gr_common/lib/libstdc++.a(string-inst.o)
                0xfff03cc2                std::string::rend() const
 .text._ZNKSs6cbeginEv
                0xfff03cc9        0x3 ./gr_common/lib/libstdc++.a(string-inst.o)
                0xfff03cc9                std::string::cbegin() const
 .text._ZNKSs4cendEv
                0xfff03ccc        0x9 ./gr_common/lib/libstdc++.a(string-inst.o)
                0xfff03ccc                std::string::cend() const
 .text._ZNKSs7crbeginEv
                0xfff03cd5        0xd ./gr_common/lib/libstdc++.a(string-inst.o)
                0xfff03cd5                std::string::crbegin() const
 .text._ZNKSs5crendEv
                0xfff03ce2        0x7 ./gr_common/lib/libstdc++.a(string-inst.o)
                0xfff03ce2                std::string::crend() const
 .text._ZNKSs4sizeEv
                0xfff03ce9        0x7 ./gr_common/lib/libstdc++.a(string-inst.o)
                0xfff03ce9                std::string::size() const
 .text._ZNKSs8max_sizeEv
                0xfff03cf0        0x7 ./gr_common/lib/libstdc++.a(string-inst.o)
                0xfff03cf0                std::string::max_size() const
 .text._ZNKSs8capacityEv
                0xfff03cf7        0x8 ./gr_common/lib/libstdc++.a(string-inst.o)
                0xfff03cf7                std::string::capacity() const
 .text._ZNKSs5emptyEv
                0xfff03cff        0xe ./gr_common/lib/libstdc++.a(string-inst.o)
                0xfff03cff                std::string::empty() const
 .text._ZNKSsixEm
                0xfff03d0d        0x5 ./gr_common/lib/libstdc++.a(string-inst.o)
                0xfff03d0d                std::string::operator[](unsigned long) const
 .text._ZNKSs2atEm
                0xfff03d12       0x18 ./gr_common/lib/libstdc++.a(string-inst.o)
                0xfff03d12                std::string::at(unsigned long) const
 .text._ZNKSs5frontEv
                0xfff03d2a        0x3 ./gr_common/lib/libstdc++.a(string-inst.o)
                0xfff03d2a                std::string::front() const
 .text._ZNKSs4backEv
                0xfff03d2d        0xb ./gr_common/lib/libstdc++.a(string-inst.o)
                0xfff03d2d                std::string::back() const
 .text._ZNKSs4copyEPcmm
                0xfff03d38       0x3c ./gr_common/lib/libstdc++.a(string-inst.o)
                0xfff03d38                std::string::copy(char*, unsigned long, unsigned long) const
 *fill*         0xfff03d74        0x4 00
 .text._ZNSs4swapERSs
                0xfff03d78       0x38 ./gr_common/lib/libstdc++.a(string-inst.o)
                0xfff03d78                std::string::swap(std::string&)
 .text._ZNSs6assignEOSs
                0xfff03db0        0xd ./gr_common/lib/libstdc++.a(string-inst.o)
                0xfff03db0                std::string::assign(std::string&&)
 .text._ZNSsaSEOSs
                0xfff03dbd        0xd ./gr_common/lib/libstdc++.a(string-inst.o)
                0xfff03dbd                std::string::operator=(std::string&&)
 .text._ZNKSs5c_strEv
                0xfff03dca        0x3 ./gr_common/lib/libstdc++.a(string-inst.o)
                0xfff03dca                std::string::c_str() const
 .text._ZNKSs13get_allocatorEv
                0xfff03dcd        0x3 ./gr_common/lib/libstdc++.a(string-inst.o)
                0xfff03dcd                std::string::get_allocator() const
 .text._ZNKSs4findEPKcmm
                0xfff03dd0       0x68 ./gr_common/lib/libstdc++.a(string-inst.o)
                0xfff03dd0                std::string::find(char const*, unsigned long, unsigned long) const
 .text._ZNKSs4findERKSsm
                0xfff03e38        0xb ./gr_common/lib/libstdc++.a(string-inst.o)
                0xfff03e38                std::string::find(std::string const&, unsigned long) const
 .text._ZNKSs4findEPKcm
                0xfff03e43       0x20 ./gr_common/lib/libstdc++.a(string-inst.o)
                0xfff03e43                std::string::find(char const*, unsigned long) const
 *fill*         0xfff03e63        0x5 00
 .text._ZNKSs4findEcm
                0xfff03e68       0x28 ./gr_common/lib/libstdc++.a(string-inst.o)
                0xfff03e68                std::string::find(char, unsigned long) const
 .text._ZNKSs5rfindEPKcmm
                0xfff03e90       0x48 ./gr_common/lib/libstdc++.a(string-inst.o)
                0xfff03e90                std::string::rfind(char const*, unsigned long, unsigned long) const
 .text._ZNKSs5rfindERKSsm
                0xfff03ed8        0xb ./gr_common/lib/libstdc++.a(string-inst.o)
                0xfff03ed8                std::string::rfind(std::string const&, unsigned long) const
 .text._ZNKSs5rfindEPKcm
                0xfff03ee3       0x20 ./gr_common/lib/libstdc++.a(string-inst.o)
                0xfff03ee3                std::string::rfind(char const*, unsigned long) const
 *fill*         0xfff03f03        0x5 00
 .text._ZNKSs5rfindEcm
                0xfff03f08       0x30 ./gr_common/lib/libstdc++.a(string-inst.o)
                0xfff03f08                std::string::rfind(char, unsigned long) const
 .text._ZNKSs13find_first_ofEPKcmm
                0xfff03f38       0x40 ./gr_common/lib/libstdc++.a(string-inst.o)
                0xfff03f38                std::string::find_first_of(char const*, unsigned long, unsigned long) const
 .text._ZNKSs13find_first_ofERKSsm
                0xfff03f78        0xb ./gr_common/lib/libstdc++.a(string-inst.o)
                0xfff03f78                std::string::find_first_of(std::string const&, unsigned long) const
 .text._ZNKSs13find_first_ofEPKcm
                0xfff03f83       0x20 ./gr_common/lib/libstdc++.a(string-inst.o)
                0xfff03f83                std::string::find_first_of(char const*, unsigned long) const
 .text._ZNKSs13find_first_ofEcm
                0xfff03fa3        0x4 ./gr_common/lib/libstdc++.a(string-inst.o)
                0xfff03fa3                std::string::find_first_of(char, unsigned long) const
 *fill*         0xfff03fa7        0x1 00
 .text._ZNKSs12find_last_ofEPKcmm
                0xfff03fa8       0x50 ./gr_common/lib/libstdc++.a(string-inst.o)
                0xfff03fa8                std::string::find_last_of(char const*, unsigned long, unsigned long) const
 .text._ZNKSs12find_last_ofERKSsm
                0xfff03ff8        0xb ./gr_common/lib/libstdc++.a(string-inst.o)
                0xfff03ff8                std::string::find_last_of(std::string const&, unsigned long) const
 .text._ZNKSs12find_last_ofEPKcm
                0xfff04003       0x20 ./gr_common/lib/libstdc++.a(string-inst.o)
                0xfff04003                std::string::find_last_of(char const*, unsigned long) const
 .text._ZNKSs12find_last_ofEcm
                0xfff04023        0x4 ./gr_common/lib/libstdc++.a(string-inst.o)
                0xfff04023                std::string::find_last_of(char, unsigned long) const
 *fill*         0xfff04027        0x1 00
 .text._ZNKSs17find_first_not_ofEPKcmm
                0xfff04028       0x40 ./gr_common/lib/libstdc++.a(string-inst.o)
                0xfff04028                std::string::find_first_not_of(char const*, unsigned long, unsigned long) const
 .text._ZNKSs17find_first_not_ofERKSsm
                0xfff04068        0xb ./gr_common/lib/libstdc++.a(string-inst.o)
                0xfff04068                std::string::find_first_not_of(std::string const&, unsigned long) const
 .text._ZNKSs17find_first_not_ofEPKcm
                0xfff04073       0x20 ./gr_common/lib/libstdc++.a(string-inst.o)
                0xfff04073                std::string::find_first_not_of(char const*, unsigned long) const
 *fill*         0xfff04093        0x5 00
 .text._ZNKSs17find_first_not_ofEcm
                0xfff04098       0x30 ./gr_common/lib/libstdc++.a(string-inst.o)
                0xfff04098                std::string::find_first_not_of(char, unsigned long) const
 .text._ZNKSs16find_last_not_ofEPKcmm
                0xfff040c8       0x48 ./gr_common/lib/libstdc++.a(string-inst.o)
                0xfff040c8                std::string::find_last_not_of(char const*, unsigned long, unsigned long) const
 .text._ZNKSs16find_last_not_ofERKSsm
                0xfff04110        0xb ./gr_common/lib/libstdc++.a(string-inst.o)
                0xfff04110                std::string::find_last_not_of(std::string const&, unsigned long) const
 .text._ZNKSs16find_last_not_ofEPKcm
                0xfff0411b       0x20 ./gr_common/lib/libstdc++.a(string-inst.o)
                0xfff0411b                std::string::find_last_not_of(char const*, unsigned long) const
 *fill*         0xfff0413b        0x5 00
 .text._ZNKSs16find_last_not_ofEcm
                0xfff04140       0x38 ./gr_common/lib/libstdc++.a(string-inst.o)
                0xfff04140                std::string::find_last_not_of(char, unsigned long) const
 .text._ZNKSs7compareERKSs
                0xfff04178       0x27 ./gr_common/lib/libstdc++.a(string-inst.o)
                0xfff04178                std::string::compare(std::string const&) const
 .text._ZNKSs7compareEmmRKSs
                0xfff0419f       0x42 ./gr_common/lib/libstdc++.a(string-inst.o)
                0xfff0419f                std::string::compare(unsigned long, unsigned long, std::string const&) const
 .text._ZNKSs7compareEmmRKSsmm
                0xfff041e1       0x5b ./gr_common/lib/libstdc++.a(string-inst.o)
                0xfff041e1                std::string::compare(unsigned long, unsigned long, std::string const&, unsigned long, unsigned long) const
 .text._ZNKSs7compareEPKc
                0xfff0423c       0x30 ./gr_common/lib/libstdc++.a(string-inst.o)
                0xfff0423c                std::string::compare(char const*) const
 .text._ZNKSs7compareEmmPKc
                0xfff0426c       0x48 ./gr_common/lib/libstdc++.a(string-inst.o)
                0xfff0426c                std::string::compare(unsigned long, unsigned long, char const*) const
 .text._ZNKSs7compareEmmPKcm
                0xfff042b4       0x41 ./gr_common/lib/libstdc++.a(string-inst.o)
                0xfff042b4                std::string::compare(unsigned long, unsigned long, char const*, unsigned long) const
 .text._ZNSs12_Alloc_hiderC2EPcRKSaIcE
                0xfff042f5        0x3 ./gr_common/lib/libstdc++.a(string-inst.o)
                0xfff042f5                std::string::_Alloc_hider::_Alloc_hider(char*, std::allocator<char> const&)
                0xfff042f5                std::string::_Alloc_hider::_Alloc_hider(char*, std::allocator<char> const&)
 .text._ZNSs4_Rep12_S_empty_repEv
                0xfff042f8        0x7 ./gr_common/lib/libstdc++.a(string-inst.o)
                0xfff042f8                std::string::_Rep::_S_empty_rep()
 .text._ZNKSs4_Rep12_M_is_leakedEv
                0xfff042ff        0x7 ./gr_common/lib/libstdc++.a(string-inst.o)
                0xfff042ff                std::string::_Rep::_M_is_leaked() const
 .text._ZNKSs4_Rep12_M_is_sharedEv
                0xfff04306        0xa ./gr_common/lib/libstdc++.a(string-inst.o)
                0xfff04306                std::string::_Rep::_M_is_shared() const
 .text._ZNSs4_Rep13_M_set_leakedEv
                0xfff04310        0x5 ./gr_common/lib/libstdc++.a(string-inst.o)
                0xfff04310                std::string::_Rep::_M_set_leaked()
 .text._ZNSs4_Rep15_M_set_sharableEv
                0xfff04315        0x4 ./gr_common/lib/libstdc++.a(string-inst.o)
                0xfff04315                std::string::_Rep::_M_set_sharable()
 .text._ZNSs4_Rep26_M_set_length_and_sharableEm
                0xfff04319       0x14 ./gr_common/lib/libstdc++.a(string-inst.o)
                0xfff04319                std::string::_Rep::_M_set_length_and_sharable(unsigned long)
 .text._ZNSs4_Rep10_M_refdataEv
                0xfff0432d        0x3 ./gr_common/lib/libstdc++.a(string-inst.o)
                0xfff0432d                std::string::_Rep::_M_refdata()
 .text._ZNSs4_Rep9_S_createEmmRKSaIcE
                0xfff04330       0x60 ./gr_common/lib/libstdc++.a(string-inst.o)
                0xfff04330                std::string::_Rep::_S_create(unsigned long, unsigned long, std::allocator<char> const&)
 .text._ZNSs12_S_constructEmcRKSaIcE
                0xfff04390       0x50 ./gr_common/lib/libstdc++.a(string-inst.o)
                0xfff04390                std::string::_S_construct(unsigned long, char, std::allocator<char> const&)
 .text._ZNSs18_S_construct_aux_2EmcRKSaIcE
                0xfff043e0        0x4 ./gr_common/lib/libstdc++.a(string-inst.o)
                0xfff043e0                std::string::_S_construct_aux_2(unsigned long, char, std::allocator<char> const&)
 .text._ZNSsC2EmcRKSaIcE
                0xfff043e4       0x13 ./gr_common/lib/libstdc++.a(string-inst.o)
                0xfff043e4                std::basic_string<char, std::char_traits<char>, std::allocator<char> >::basic_string(unsigned long, char, std::allocator<char> const&)
                0xfff043e4                std::basic_string<char, std::char_traits<char>, std::allocator<char> >::basic_string(unsigned long, char, std::allocator<char> const&)
 .text._ZNSsC2ERKSaIcE
                0xfff043f7       0x13 ./gr_common/lib/libstdc++.a(string-inst.o)
                0xfff043f7                std::basic_string<char, std::char_traits<char>, std::allocator<char> >::basic_string(std::allocator<char> const&)
                0xfff043f7                std::basic_string<char, std::char_traits<char>, std::allocator<char> >::basic_string(std::allocator<char> const&)
 .text._ZNSs4_Rep10_M_destroyERKSaIcE
                0xfff0440a        0x4 ./gr_common/lib/libstdc++.a(string-inst.o)
                0xfff0440a                std::string::_Rep::_M_destroy(std::allocator<char> const&)
 .text.unlikely._ZNSs4_Rep10_M_disposeERKSaIcE.part.21
                0xfff0440e       0x11 ./gr_common/lib/libstdc++.a(string-inst.o)
 .text._ZNSs4_Rep10_M_disposeERKSaIcE
                0xfff0441f        0xd ./gr_common/lib/libstdc++.a(string-inst.o)
                0xfff0441f                std::string::_Rep::_M_dispose(std::allocator<char> const&)
 .text._ZNSsD2Ev
                0xfff0442c       0x17 ./gr_common/lib/libstdc++.a(string-inst.o)
                0xfff0442c                std::basic_string<char, std::char_traits<char>, std::allocator<char> >::~basic_string()
                0xfff0442c                std::basic_string<char, std::char_traits<char>, std::allocator<char> >::~basic_string()
 *fill*         0xfff04443        0x5 00
 .text._ZNSs9_M_mutateEmmm
                0xfff04448       0xd8 ./gr_common/lib/libstdc++.a(string-inst.o)
                0xfff04448                std::string::_M_mutate(unsigned long, unsigned long, unsigned long)
 .text._ZNSs15_M_replace_safeEmmPKcm
                0xfff04520       0x36 ./gr_common/lib/libstdc++.a(string-inst.o)
                0xfff04520                std::string::_M_replace_safe(unsigned long, unsigned long, char const*, unsigned long)
 *fill*         0xfff04556        0x2 00
 .text._ZNSs6assignEPKcm
                0xfff04558       0x90 ./gr_common/lib/libstdc++.a(string-inst.o)
                0xfff04558                std::string::assign(char const*, unsigned long)
 .text._ZNSs6assignESt16initializer_listIcE
                0xfff045e8        0x4 ./gr_common/lib/libstdc++.a(string-inst.o)
                0xfff045e8                std::string::assign(std::initializer_list<char>)
 .text._ZNSs6assignEPKc
                0xfff045ec       0x1c ./gr_common/lib/libstdc++.a(string-inst.o)
                0xfff045ec                std::string::assign(char const*)
 .text._ZNSs6assignERKSsmm
                0xfff04608       0x26 ./gr_common/lib/libstdc++.a(string-inst.o)
                0xfff04608                std::string::assign(std::string const&, unsigned long, unsigned long)
 .text._ZNSsaSESt16initializer_listIcE
                0xfff0462e        0xd ./gr_common/lib/libstdc++.a(string-inst.o)
                0xfff0462e                std::string::operator=(std::initializer_list<char>)
 .text._ZNSsaSEPKc
                0xfff0463b       0x1c ./gr_common/lib/libstdc++.a(string-inst.o)
                0xfff0463b                std::string::operator=(char const*)
 .text._ZNSs14_M_replace_auxEmmmc
                0xfff04657       0x50 ./gr_common/lib/libstdc++.a(string-inst.o)
                0xfff04657                std::string::_M_replace_aux(unsigned long, unsigned long, unsigned long, char)
 .text._ZNSs7replaceEN9__gnu_cxx17__normal_iteratorIPcSsEES2_mc
                0xfff046a7       0x14 ./gr_common/lib/libstdc++.a(string-inst.o)
                0xfff046a7                std::string::replace(__gnu_cxx::__normal_iterator<char*, std::string>, __gnu_cxx::__normal_iterator<char*, std::string>, unsigned long, char)
 .text._ZNSs7replaceEmmmc
                0xfff046bb       0x31 ./gr_common/lib/libstdc++.a(string-inst.o)
                0xfff046bb                std::string::replace(unsigned long, unsigned long, unsigned long, char)
 .text._ZNSs6insertEN9__gnu_cxx17__normal_iteratorIPcSsEEc
                0xfff046ec       0x25 ./gr_common/lib/libstdc++.a(string-inst.o)
                0xfff046ec                std::string::insert(__gnu_cxx::__normal_iterator<char*, std::string>, char)
 .text._ZNSs6insertEmmc
                0xfff04711       0x25 ./gr_common/lib/libstdc++.a(string-inst.o)
                0xfff04711                std::string::insert(unsigned long, unsigned long, char)
 .text._ZNSs6assignEmc
                0xfff04736       0x14 ./gr_common/lib/libstdc++.a(string-inst.o)
                0xfff04736                std::string::assign(unsigned long, char)
 .text._ZNSs6insertEN9__gnu_cxx17__normal_iteratorIPcSsEEmc
                0xfff0474a       0x13 ./gr_common/lib/libstdc++.a(string-inst.o)
                0xfff0474a                std::string::insert(__gnu_cxx::__normal_iterator<char*, std::string>, unsigned long, char)
 .text._ZNSsaSEc
                0xfff0475d       0x1b ./gr_common/lib/libstdc++.a(string-inst.o)
                0xfff0475d                std::string::operator=(char)
 .text._ZNSs5eraseEN9__gnu_cxx17__normal_iteratorIPcSsEES2_
                0xfff04778       0x27 ./gr_common/lib/libstdc++.a(string-inst.o)
                0xfff04778                std::string::erase(__gnu_cxx::__normal_iterator<char*, std::string>, __gnu_cxx::__normal_iterator<char*, std::string>)
 .text._ZNSs5eraseEN9__gnu_cxx17__normal_iteratorIPcSsEE
                0xfff0479f       0x21 ./gr_common/lib/libstdc++.a(string-inst.o)
                0xfff0479f                std::string::erase(__gnu_cxx::__normal_iterator<char*, std::string>)
 .text._ZNSs5eraseEmm
                0xfff047c0       0x2c ./gr_common/lib/libstdc++.a(string-inst.o)
                0xfff047c0                std::string::erase(unsigned long, unsigned long)
 *fill*         0xfff047ec        0x4 00
 .text._ZNSs6insertEmPKcm
                0xfff047f0       0xe0 ./gr_common/lib/libstdc++.a(string-inst.o)
                0xfff047f0                std::string::insert(unsigned long, char const*, unsigned long)
 .text._ZNSs6insertEmPKc
                0xfff048d0       0x20 ./gr_common/lib/libstdc++.a(string-inst.o)
                0xfff048d0                std::string::insert(unsigned long, char const*)
 .text._ZNSs6insertEmRKSsmm
                0xfff048f0       0x2d ./gr_common/lib/libstdc++.a(string-inst.o)
                0xfff048f0                std::string::insert(unsigned long, std::string const&, unsigned long, unsigned long)
 .text._ZNSs6insertEN9__gnu_cxx17__normal_iteratorIPcSsEESt16initializer_listIcE
                0xfff0491d        0x7 ./gr_common/lib/libstdc++.a(string-inst.o)
                0xfff0491d                std::string::insert(__gnu_cxx::__normal_iterator<char*, std::string>, std::initializer_list<char>)
 .text._ZNSs6insertEmRKSs
                0xfff04924        0xb ./gr_common/lib/libstdc++.a(string-inst.o)
                0xfff04924                std::string::insert(unsigned long, std::string const&)
 .text._ZNSs5clearEv
                0xfff0492f        0xe ./gr_common/lib/libstdc++.a(string-inst.o)
                0xfff0492f                std::string::clear()
 *fill*         0xfff0493d        0x3 00
 .text._ZNSs12_M_leak_hardEv
                0xfff04940       0x30 ./gr_common/lib/libstdc++.a(string-inst.o)
                0xfff04940                std::string::_M_leak_hard()
 .text._ZNSs7_M_leakEv
                0xfff04970       0x10 ./gr_common/lib/libstdc++.a(string-inst.o)
                0xfff04970                std::string::_M_leak()
 .text._ZNSsixEm
                0xfff04980       0x28 ./gr_common/lib/libstdc++.a(string-inst.o)
                0xfff04980                std::string::operator[](unsigned long)
 .text._ZNSs4backEv
                0xfff049a8       0x20 ./gr_common/lib/libstdc++.a(string-inst.o)
                0xfff049a8                std::string::back()
 .text._ZNSs5frontEv
                0xfff049c8       0x20 ./gr_common/lib/libstdc++.a(string-inst.o)
                0xfff049c8                std::string::front()
 .text._ZNSs3endEv
                0xfff049e8       0x20 ./gr_common/lib/libstdc++.a(string-inst.o)
                0xfff049e8                std::string::end()
 .text._ZNSs5beginEv
                0xfff04a08       0x20 ./gr_common/lib/libstdc++.a(string-inst.o)
                0xfff04a08                std::string::begin()
 .text._ZNSs4rendEv
                0xfff04a28       0x28 ./gr_common/lib/libstdc++.a(string-inst.o)
                0xfff04a28                std::string::rend()
 .text._ZNSs6rbeginEv
                0xfff04a50       0x28 ./gr_common/lib/libstdc++.a(string-inst.o)
                0xfff04a50                std::string::rbegin()
 .text._ZNSs2atEm
                0xfff04a78       0x30 ./gr_common/lib/libstdc++.a(string-inst.o)
                0xfff04a78                std::string::at(unsigned long)
 .text._ZNSs4_Rep10_M_refcopyEv
                0xfff04aa8       0x15 ./gr_common/lib/libstdc++.a(string-inst.o)
                0xfff04aa8                std::string::_Rep::_M_refcopy()
 *fill*         0xfff04abd        0x3 00
 .text._ZNSs4_Rep8_M_cloneERKSaIcEm
                0xfff04ac0       0x50 ./gr_common/lib/libstdc++.a(string-inst.o)
                0xfff04ac0                std::string::_Rep::_M_clone(std::allocator<char> const&, unsigned long)
 .text._ZNSs4_Rep7_M_grabERKSaIcES2_
                0xfff04b10       0x22 ./gr_common/lib/libstdc++.a(string-inst.o)
                0xfff04b10                std::string::_Rep::_M_grab(std::allocator<char> const&, std::allocator<char> const&)
 *fill*         0xfff04b32        0x6 00
 .text._ZNSs7reserveEm
                0xfff04b38       0x50 ./gr_common/lib/libstdc++.a(string-inst.o)
                0xfff04b38                std::string::reserve(unsigned long)
 .text._ZNSs9push_backEc
                0xfff04b88       0x60 ./gr_common/lib/libstdc++.a(string-inst.o)
                0xfff04b88                std::string::push_back(char)
 .text._ZNSs6appendEmc
                0xfff04be8       0x78 ./gr_common/lib/libstdc++.a(string-inst.o)
                0xfff04be8                std::string::append(unsigned long, char)
 .text._ZNSs6resizeEmc
                0xfff04c60       0x2e ./gr_common/lib/libstdc++.a(string-inst.o)
                0xfff04c60                std::string::resize(unsigned long, char)
 .text._ZNSs6resizeEm
                0xfff04c8e        0x6 ./gr_common/lib/libstdc++.a(string-inst.o)
                0xfff04c8e                std::string::resize(unsigned long)
 *fill*         0xfff04c94        0x4 00
 .text._ZNSs6appendEPKcm
                0xfff04c98       0xa0 ./gr_common/lib/libstdc++.a(string-inst.o)
                0xfff04c98                std::string::append(char const*, unsigned long)
 .text._ZNSs6appendESt16initializer_listIcE
                0xfff04d38        0x4 ./gr_common/lib/libstdc++.a(string-inst.o)
                0xfff04d38                std::string::append(std::initializer_list<char>)
 .text._ZNSs6appendEPKc
                0xfff04d3c       0x1c ./gr_common/lib/libstdc++.a(string-inst.o)
                0xfff04d3c                std::string::append(char const*)
 .text._ZNSspLESt16initializer_listIcE
                0xfff04d58        0x4 ./gr_common/lib/libstdc++.a(string-inst.o)
                0xfff04d58                std::string::operator+=(std::initializer_list<char>)
 .text._ZNSspLEPKc
                0xfff04d5c       0x1c ./gr_common/lib/libstdc++.a(string-inst.o)
                0xfff04d5c                std::string::operator+=(char const*)
 .text._ZNSs6appendERKSsmm
                0xfff04d78       0x88 ./gr_common/lib/libstdc++.a(string-inst.o)
                0xfff04d78                std::string::append(std::string const&, unsigned long, unsigned long)
 .text._ZNSs6appendERKSs
                0xfff04e00       0x70 ./gr_common/lib/libstdc++.a(string-inst.o)
                0xfff04e00                std::string::append(std::string const&)
 .text._ZNSspLERKSs
                0xfff04e70        0x4 ./gr_common/lib/libstdc++.a(string-inst.o)
                0xfff04e70                std::string::operator+=(std::string const&)
 *fill*         0xfff04e74        0x4 00
 .text._ZNSs13shrink_to_fitEv
                0xfff04e78       0x50 ./gr_common/lib/libstdc++.a(string-inst.o)
                0xfff04e78                std::string::shrink_to_fit()
 .text._ZNSspLEc
                0xfff04ec8       0x58 ./gr_common/lib/libstdc++.a(string-inst.o)
                0xfff04ec8                std::string::operator+=(char)
 .text._ZNSsC2ERKSs
                0xfff04f20       0x38 ./gr_common/lib/libstdc++.a(string-inst.o)
                0xfff04f20                std::basic_string<char, std::char_traits<char>, std::allocator<char> >::basic_string(std::string const&)
                0xfff04f20                std::basic_string<char, std::char_traits<char>, std::allocator<char> >::basic_string(std::string const&)
 .text._ZNSs6assignERKSs
                0xfff04f58       0x58 ./gr_common/lib/libstdc++.a(string-inst.o)
                0xfff04f58                std::string::assign(std::string const&)
 .text._ZNSsaSERKSs
                0xfff04fb0        0x4 ./gr_common/lib/libstdc++.a(string-inst.o)
                0xfff04fb0                std::string::operator=(std::string const&)
 .text._ZStplIcSt11char_traitsIcESaIcEESbIT_T0_T1_EPKS3_RKS6_
                0xfff04fb4       0x80 ./gr_common/lib/libstdc++.a(string-inst.o)
                0xfff04fb4                std::basic_string<char, std::char_traits<char>, std::allocator<char> > std::operator+<char, std::char_traits<char>, std::allocator<char> >(char const*, std::basic_string<char, std::char_traits<char>, std::allocator<char> > const&)
 .text._ZStplIcSt11char_traitsIcESaIcEESbIT_T0_T1_ES3_RKS6_
                0xfff05034       0x79 ./gr_common/lib/libstdc++.a(string-inst.o)
                0xfff05034                std::basic_string<char, std::char_traits<char>, std::allocator<char> > std::operator+<char, std::char_traits<char>, std::allocator<char> >(char, std::basic_string<char, std::char_traits<char>, std::allocator<char> > const&)
 .text._ZStplIcSt11char_traitsIcESaIcEESbIT_T0_T1_ERKS6_S8_
                0xfff050ad       0x61 ./gr_common/lib/libstdc++.a(string-inst.o)
                0xfff050ad                std::basic_string<char, std::char_traits<char>, std::allocator<char> > std::operator+<char, std::char_traits<char>, std::allocator<char> >(std::basic_string<char, std::char_traits<char>, std::allocator<char> > const&, std::basic_string<char, std::char_traits<char>, std::allocator<char> > const&)
 *fill*         0xfff0510e        0x2 00
 .text._ZNSs12_S_constructIN9__gnu_cxx17__normal_iteratorIPcSsEEEES2_T_S4_RKSaIcESt20forward_iterator_tag
                0xfff05110       0x50 ./gr_common/lib/libstdc++.a(string-inst.o)
                0xfff05110                char* std::string::_S_construct<__gnu_cxx::__normal_iterator<char*, std::string> >(__gnu_cxx::__normal_iterator<char*, std::string>, __gnu_cxx::__normal_iterator<char*, std::string>, std::allocator<char> const&, std::forward_iterator_tag)
 .text._ZNSsC2IN9__gnu_cxx17__normal_iteratorIPcSsEEEET_S4_RKSaIcE
                0xfff05160       0x18 ./gr_common/lib/libstdc++.a(string-inst.o)
                0xfff05160                std::basic_string<char, std::char_traits<char>, std::allocator<char> >::basic_string<__gnu_cxx::__normal_iterator<char*, std::string> >(__gnu_cxx::__normal_iterator<char*, std::string>, __gnu_cxx::__normal_iterator<char*, std::string>, std::allocator<char> const&)
                0xfff05160                std::basic_string<char, std::char_traits<char>, std::allocator<char> >::basic_string<__gnu_cxx::__normal_iterator<char*, std::string> >(__gnu_cxx::__normal_iterator<char*, std::string>, __gnu_cxx::__normal_iterator<char*, std::string>, std::allocator<char> const&)
 .text._ZNSs12_S_constructIPcEES0_T_S1_RKSaIcESt20forward_iterator_tag
                0xfff05178       0x78 ./gr_common/lib/libstdc++.a(string-inst.o)
                0xfff05178                char* std::string::_S_construct<char*>(char*, char*, std::allocator<char> const&, std::forward_iterator_tag)
 .text._ZNSsC2IPcEET_S1_RKSaIcE
                0xfff051f0       0x18 ./gr_common/lib/libstdc++.a(string-inst.o)
                0xfff051f0                std::basic_string<char, std::char_traits<char>, std::allocator<char> >::basic_string<char*>(char*, char*, std::allocator<char> const&)
                0xfff051f0                std::basic_string<char, std::char_traits<char>, std::allocator<char> >::basic_string<char*>(char*, char*, std::allocator<char> const&)
 .text._ZNSsC2ERKSsmmRKSaIcE
                0xfff05208       0x3a ./gr_common/lib/libstdc++.a(string-inst.o)
                0xfff05208                std::basic_string<char, std::char_traits<char>, std::allocator<char> >::basic_string(std::string const&, unsigned long, unsigned long, std::allocator<char> const&)
                0xfff05208                std::basic_string<char, std::char_traits<char>, std::allocator<char> >::basic_string(std::string const&, unsigned long, unsigned long, std::allocator<char> const&)
 .text._ZNSsC2ERKSsmm
                0xfff05242       0x3a ./gr_common/lib/libstdc++.a(string-inst.o)
                0xfff05242                std::basic_string<char, std::char_traits<char>, std::allocator<char> >::basic_string(std::string const&, unsigned long, unsigned long)
                0xfff05242                std::basic_string<char, std::char_traits<char>, std::allocator<char> >::basic_string(std::string const&, unsigned long, unsigned long)
 .text._ZNKSs6substrEmm
                0xfff0527c       0x2d ./gr_common/lib/libstdc++.a(string-inst.o)
                0xfff0527c                std::string::substr(unsigned long, unsigned long) const
 *fill*         0xfff052a9        0x7 00
 .text._ZNSs12_S_constructIPKcEEPcT_S3_RKSaIcESt20forward_iterator_tag
                0xfff052b0       0x78 ./gr_common/lib/libstdc++.a(string-inst.o)
                0xfff052b0                char* std::string::_S_construct<char const*>(char const*, char const*, std::allocator<char> const&, std::forward_iterator_tag)
 .text._ZNSsC2IPKcEET_S2_RKSaIcE
                0xfff05328       0x18 ./gr_common/lib/libstdc++.a(string-inst.o)
                0xfff05328                std::basic_string<char, std::char_traits<char>, std::allocator<char> >::basic_string<char const*>(char const*, char const*, std::allocator<char> const&)
                0xfff05328                std::basic_string<char, std::char_traits<char>, std::allocator<char> >::basic_string<char const*>(char const*, char const*, std::allocator<char> const&)
 .text._ZNSsC2ESt16initializer_listIcERKSaIcE
                0xfff05340       0x18 ./gr_common/lib/libstdc++.a(string-inst.o)
                0xfff05340                std::basic_string<char, std::char_traits<char>, std::allocator<char> >::basic_string(std::initializer_list<char>, std::allocator<char> const&)
                0xfff05340                std::basic_string<char, std::char_traits<char>, std::allocator<char> >::basic_string(std::initializer_list<char>, std::allocator<char> const&)
 .text._ZNSsC2EPKcRKSaIcE
                0xfff05358       0x38 ./gr_common/lib/libstdc++.a(string-inst.o)
                0xfff05358                std::basic_string<char, std::char_traits<char>, std::allocator<char> >::basic_string(char const*, std::allocator<char> const&)
                0xfff05358                std::basic_string<char, std::char_traits<char>, std::allocator<char> >::basic_string(char const*, std::allocator<char> const&)
 .text._ZNSsC2EPKcmRKSaIcE
                0xfff05390       0x18 ./gr_common/lib/libstdc++.a(string-inst.o)
                0xfff05390                std::basic_string<char, std::char_traits<char>, std::allocator<char> >::basic_string(char const*, unsigned long, std::allocator<char> const&)
                0xfff05390                std::basic_string<char, std::char_traits<char>, std::allocator<char> >::basic_string(char const*, unsigned long, std::allocator<char> const&)
 .text._ZNSs7replaceEmmPKcm
                0xfff053a8      0x198 ./gr_common/lib/libstdc++.a(string-inst.o)
                0xfff053a8                std::string::replace(unsigned long, unsigned long, char const*, unsigned long)
 .text._ZNSs7replaceEN9__gnu_cxx17__normal_iteratorIPcSsEES2_NS0_IPKcSsEES5_
                0xfff05540       0x1f ./gr_common/lib/libstdc++.a(string-inst.o)
                0xfff05540                std::string::replace(__gnu_cxx::__normal_iterator<char*, std::string>, __gnu_cxx::__normal_iterator<char*, std::string>, __gnu_cxx::__normal_iterator<char const*, std::string>, __gnu_cxx::__normal_iterator<char const*, std::string>)
 .text._ZNSs7replaceEN9__gnu_cxx17__normal_iteratorIPcSsEES2_S2_S2_
                0xfff0555f       0x1f ./gr_common/lib/libstdc++.a(string-inst.o)
                0xfff0555f                std::string::replace(__gnu_cxx::__normal_iterator<char*, std::string>, __gnu_cxx::__normal_iterator<char*, std::string>, __gnu_cxx::__normal_iterator<char*, std::string>, __gnu_cxx::__normal_iterator<char*, std::string>)
 .text._ZNSs7replaceEN9__gnu_cxx17__normal_iteratorIPcSsEES2_PKcS4_
                0xfff0557e       0x1f ./gr_common/lib/libstdc++.a(string-inst.o)
                0xfff0557e                std::string::replace(__gnu_cxx::__normal_iterator<char*, std::string>, __gnu_cxx::__normal_iterator<char*, std::string>, char const*, char const*)
 .text._ZNSs7replaceEN9__gnu_cxx17__normal_iteratorIPcSsEES2_S1_S1_
                0xfff0559d       0x1f ./gr_common/lib/libstdc++.a(string-inst.o)
                0xfff0559d                std::string::replace(__gnu_cxx::__normal_iterator<char*, std::string>, __gnu_cxx::__normal_iterator<char*, std::string>, char*, char*)
 .text._ZNSs7replaceEN9__gnu_cxx17__normal_iteratorIPcSsEES2_PKcm
                0xfff055bc       0x14 ./gr_common/lib/libstdc++.a(string-inst.o)
                0xfff055bc                std::string::replace(__gnu_cxx::__normal_iterator<char*, std::string>, __gnu_cxx::__normal_iterator<char*, std::string>, char const*, unsigned long)
 .text._ZNSs7replaceEmmPKc
                0xfff055d0       0x24 ./gr_common/lib/libstdc++.a(string-inst.o)
                0xfff055d0                std::string::replace(unsigned long, unsigned long, char const*)
 .text._ZNSs7replaceEmmRKSsmm
                0xfff055f4       0x38 ./gr_common/lib/libstdc++.a(string-inst.o)
                0xfff055f4                std::string::replace(unsigned long, unsigned long, std::string const&, unsigned long, unsigned long)
 .text._ZNSs7replaceEmmRKSs
                0xfff0562c       0x11 ./gr_common/lib/libstdc++.a(string-inst.o)
                0xfff0562c                std::string::replace(unsigned long, unsigned long, std::string const&)
 .text._ZNSs7replaceEN9__gnu_cxx17__normal_iteratorIPcSsEES2_St16initializer_listIcE
                0xfff0563d       0x20 ./gr_common/lib/libstdc++.a(string-inst.o)
                0xfff0563d                std::string::replace(__gnu_cxx::__normal_iterator<char*, std::string>, __gnu_cxx::__normal_iterator<char*, std::string>, std::initializer_list<char>)
 .text._ZNSs7replaceEN9__gnu_cxx17__normal_iteratorIPcSsEES2_PKc
                0xfff0565d       0x27 ./gr_common/lib/libstdc++.a(string-inst.o)
                0xfff0565d                std::string::replace(__gnu_cxx::__normal_iterator<char*, std::string>, __gnu_cxx::__normal_iterator<char*, std::string>, char const*)
 .text._ZNSs7replaceEN9__gnu_cxx17__normal_iteratorIPcSsEES2_RKSs
                0xfff05684       0x1c ./gr_common/lib/libstdc++.a(string-inst.o)
                0xfff05684                std::string::replace(__gnu_cxx::__normal_iterator<char*, std::string>, __gnu_cxx::__normal_iterator<char*, std::string>, std::string const&)
 .text._ZN9__gnu_cxxeqIPcSsEEbRKNS_17__normal_iteratorIT_T0_EES7_
                0xfff056a0        0xb ./gr_common/lib/libstdc++.a(string-inst.o)
                0xfff056a0                bool __gnu_cxx::operator==<char*, std::string>(__gnu_cxx::__normal_iterator<char*, std::string> const&, __gnu_cxx::__normal_iterator<char*, std::string> const&)
 .text._ZN9__gnu_cxxeqIPKcSsEEbRKNS_17__normal_iteratorIT_T0_EES8_
                0xfff056ab        0xb ./gr_common/lib/libstdc++.a(string-inst.o)
                0xfff056ab                bool __gnu_cxx::operator==<char const*, std::string>(__gnu_cxx::__normal_iterator<char const*, std::string> const&, __gnu_cxx::__normal_iterator<char const*, std::string> const&)
 .text._ZdlPv   0xfff056b6        0x8 ./gr_common/lib/libstdc++.a(del_op.o)
                0xfff056b6                operator delete(void*)
 .text.__cxa_get_exception_ptr
                0xfff056be        0x6 ./gr_common/lib/libstdc++.a(eh_catch.o)
                0xfff056be                __cxa_get_exception_ptr
 *fill*         0xfff056c4        0x4 00
 .text.__cxa_begin_catch
                0xfff056c8       0x60 ./gr_common/lib/libstdc++.a(eh_catch.o)
                0xfff056c8                __cxa_begin_catch
 .text.__cxa_end_catch
                0xfff05728       0x68 ./gr_common/lib/libstdc++.a(eh_catch.o)
                0xfff05728                __cxa_end_catch
 .text._ZSt18uncaught_exceptionv
                0xfff05790        0xe ./gr_common/lib/libstdc++.a(eh_catch.o)
                0xfff05790                std::uncaught_exception()
 *fill*         0xfff0579e        0x2 00
 .text._ZL12read_sleb128PKhPl
                0xfff057a0       0x38 ./gr_common/lib/libstdc++.a(eh_personality.o)
 .text._ZL21base_of_encoded_valuehP15_Unwind_Context
                0xfff057d8       0x48 ./gr_common/lib/libstdc++.a(eh_personality.o)
 .text._ZL28read_encoded_value_with_basehjPKhPj
                0xfff05820       0xa0 ./gr_common/lib/libstdc++.a(eh_personality.o)
 .text._ZL17parse_lsda_headerP15_Unwind_ContextPKhP16lsda_header_info.constprop.5
                0xfff058c0       0x98 ./gr_common/lib/libstdc++.a(eh_personality.o)
 .text._ZL15get_ttype_entryP16lsda_header_infom.constprop.6
                0xfff05958       0x70 ./gr_common/lib/libstdc++.a(eh_personality.o)
 .text._ZL20check_exception_specP16lsda_header_infoPKSt9type_infoPvl.constprop.4
                0xfff059c8       0x78 ./gr_common/lib/libstdc++.a(eh_personality.o)
 .text.__gxx_personality_sj0
                0xfff05a40      0x3d0 ./gr_common/lib/libstdc++.a(eh_personality.o)
                0xfff05a40                __gxx_personality_sj0
 .text.__cxa_call_unexpected
                0xfff05e10      0x100 ./gr_common/lib/libstdc++.a(eh_personality.o)
                0xfff05e10                __cxa_call_unexpected
 .text._ZNSt9exceptionD2Ev
                0xfff05f10        0x7 ./gr_common/lib/libstdc++.a(eh_exception.o)
                0xfff05f10                std::exception::~exception()
                0xfff05f10                std::exception::~exception()
 .text._ZNSt13bad_exceptionD2Ev
                0xfff05f17        0x7 ./gr_common/lib/libstdc++.a(eh_exception.o)
                0xfff05f17                std::bad_exception::~bad_exception()
                0xfff05f17                std::bad_exception::~bad_exception()
 .text._ZN10__cxxabiv115__forced_unwindD2Ev
                0xfff05f1e        0x7 ./gr_common/lib/libstdc++.a(eh_exception.o)
                0xfff05f1e                __cxxabiv1::__forced_unwind::~__forced_unwind()
                0xfff05f1e                __cxxabiv1::__forced_unwind::~__forced_unwind()
 .text._ZN10__cxxabiv119__foreign_exceptionD2Ev
                0xfff05f25        0x7 ./gr_common/lib/libstdc++.a(eh_exception.o)
                0xfff05f25                __cxxabiv1::__foreign_exception::~__foreign_exception()
                0xfff05f25                __cxxabiv1::__foreign_exception::~__foreign_exception()
 .text._ZNKSt9exception4whatEv
                0xfff05f2c        0x7 ./gr_common/lib/libstdc++.a(eh_exception.o)
                0xfff05f2c                std::exception::what() const
 .text._ZNKSt13bad_exception4whatEv
                0xfff05f33        0x7 ./gr_common/lib/libstdc++.a(eh_exception.o)
                0xfff05f33                std::bad_exception::what() const
 .text._ZN10__cxxabiv119__foreign_exceptionD0Ev
                0xfff05f3a        0xa ./gr_common/lib/libstdc++.a(eh_exception.o)
                0xfff05f3a                __cxxabiv1::__foreign_exception::~__foreign_exception()
 .text._ZN10__cxxabiv115__forced_unwindD0Ev
                0xfff05f44        0xa ./gr_common/lib/libstdc++.a(eh_exception.o)
                0xfff05f44                __cxxabiv1::__forced_unwind::~__forced_unwind()
 .text._ZNSt13bad_exceptionD0Ev
                0xfff05f4e        0xa ./gr_common/lib/libstdc++.a(eh_exception.o)
                0xfff05f4e                std::bad_exception::~bad_exception()
 .text._ZNSt9exceptionD0Ev
                0xfff05f58        0xa ./gr_common/lib/libstdc++.a(eh_exception.o)
                0xfff05f58                std::exception::~exception()
 *fill*         0xfff05f62        0x6 00
 .text._Znwm    0xfff05f68       0xb0 ./gr_common/lib/libstdc++.a(new_op.o)
                0xfff05f68                operator new(unsigned long)
 .text.__cxa_pure_virtual
                0xfff06018       0x13 ./gr_common/lib/libstdc++.a(pure.o)
                0xfff06018                __cxa_pure_virtual
 .text.__cxa_get_globals_fast
                0xfff0602b        0x7 ./gr_common/lib/libstdc++.a(eh_globals.o)
                0xfff0602b                __cxa_get_globals_fast
 .text.__cxa_get_globals
                0xfff06032        0x7 ./gr_common/lib/libstdc++.a(eh_globals.o)
                0xfff06032                __cxa_get_globals
 .text._ZN10__cxxabiv111__terminateEPFvvE
                0xfff06039       0x76 ./gr_common/lib/libstdc++.a(eh_terminate.o)
                0xfff06039                __cxxabiv1::__terminate(void (*)())
 .text._ZSt9terminatev
                0xfff060af        0xc ./gr_common/lib/libstdc++.a(eh_terminate.o)
                0xfff060af                std::terminate()
 .text._ZN10__cxxabiv112__unexpectedEPFvvE
                0xfff060bb        0x6 ./gr_common/lib/libstdc++.a(eh_terminate.o)
                0xfff060bb                __cxxabiv1::__unexpected(void (*)())
 .text._ZSt10unexpectedv
                0xfff060c1        0xe ./gr_common/lib/libstdc++.a(eh_terminate.o)
                0xfff060c1                std::unexpected()
 .text._ZSt13set_terminatePFvvE
                0xfff060cf        0xd ./gr_common/lib/libstdc++.a(eh_terminate.o)
                0xfff060cf                std::set_terminate(void (*)())
 .text._ZSt14set_unexpectedPFvvE
                0xfff060dc        0xd ./gr_common/lib/libstdc++.a(eh_terminate.o)
                0xfff060dc                std::set_unexpected(void (*)())
 *fill*         0xfff060e9        0x7 00
 .text.__cxa_allocate_exception
                0xfff060f0       0x68 ./gr_common/lib/libstdc++.a(eh_alloc.o)
                0xfff060f0                __cxa_allocate_exception
 .text.__cxa_free_exception
                0xfff06158       0x40 ./gr_common/lib/libstdc++.a(eh_alloc.o)
                0xfff06158                __cxa_free_exception
 .text.__cxa_allocate_dependent_exception
                0xfff06198       0x60 ./gr_common/lib/libstdc++.a(eh_alloc.o)
                0xfff06198                __cxa_allocate_dependent_exception
 .text.__cxa_free_dependent_exception
                0xfff061f8       0x40 ./gr_common/lib/libstdc++.a(eh_alloc.o)
                0xfff061f8                __cxa_free_dependent_exception
 .text._ZSt21__throw_bad_exceptionv
                0xfff06238       0x1c ./gr_common/lib/libstdc++.a(functexcept.o)
                0xfff06238                std::__throw_bad_exception()
 .text._ZSt17__throw_bad_allocv
                0xfff06254       0x1c ./gr_common/lib/libstdc++.a(functexcept.o)
                0xfff06254                std::__throw_bad_alloc()
 .text._ZSt16__throw_bad_castv
                0xfff06270       0x1c ./gr_common/lib/libstdc++.a(functexcept.o)
                0xfff06270                std::__throw_bad_cast()
 .text._ZSt18__throw_bad_typeidv
                0xfff0628c       0x1c ./gr_common/lib/libstdc++.a(functexcept.o)
                0xfff0628c                std::__throw_bad_typeid()
 .text._ZSt19__throw_logic_errorPKc
                0xfff062a8       0xa0 ./gr_common/lib/libstdc++.a(functexcept.o)
                0xfff062a8                std::__throw_logic_error(char const*)
 .text._ZSt20__throw_domain_errorPKc
                0xfff06348       0xa0 ./gr_common/lib/libstdc++.a(functexcept.o)
                0xfff06348                std::__throw_domain_error(char const*)
 .text._ZSt24__throw_invalid_argumentPKc
                0xfff063e8       0xa0 ./gr_common/lib/libstdc++.a(functexcept.o)
                0xfff063e8                std::__throw_invalid_argument(char const*)
 .text._ZSt20__throw_length_errorPKc
                0xfff06488       0xa0 ./gr_common/lib/libstdc++.a(functexcept.o)
                0xfff06488                std::__throw_length_error(char const*)
 .text._ZSt20__throw_out_of_rangePKc
                0xfff06528       0xa0 ./gr_common/lib/libstdc++.a(functexcept.o)
                0xfff06528                std::__throw_out_of_range(char const*)
 .text._ZSt21__throw_runtime_errorPKc
                0xfff065c8       0xa0 ./gr_common/lib/libstdc++.a(functexcept.o)
                0xfff065c8                std::__throw_runtime_error(char const*)
 .text._ZSt19__throw_range_errorPKc
                0xfff06668       0xa0 ./gr_common/lib/libstdc++.a(functexcept.o)
                0xfff06668                std::__throw_range_error(char const*)
 .text._ZSt22__throw_overflow_errorPKc
                0xfff06708       0xa0 ./gr_common/lib/libstdc++.a(functexcept.o)
                0xfff06708                std::__throw_overflow_error(char const*)
 .text._ZSt23__throw_underflow_errorPKc
                0xfff067a8       0xa0 ./gr_common/lib/libstdc++.a(functexcept.o)
                0xfff067a8                std::__throw_underflow_error(char const*)
 .text._ZSt19__throw_ios_failurePKc
                0xfff06848       0x79 ./gr_common/lib/libstdc++.a(functexcept.o)
                0xfff06848                std::__throw_ios_failure(char const*)
 *fill*         0xfff068c1        0x7 00
 .text._ZSt20__throw_system_errori
                0xfff068c8       0xb8 ./gr_common/lib/libstdc++.a(functexcept.o)
                0xfff068c8                std::__throw_system_error(int)
 .text._ZSt20__throw_future_errori
                0xfff06980       0xc0 ./gr_common/lib/libstdc++.a(functexcept.o)
                0xfff06980                std::__throw_future_error(int)
 .text._ZSt25__throw_bad_function_callv
                0xfff06a40       0x1c ./gr_common/lib/libstdc++.a(functexcept.o)
                0xfff06a40                std::__throw_bad_function_call()
 .text._ZSt19__throw_regex_errorNSt15regex_constants10error_typeE
                0xfff06a5c       0x61 ./gr_common/lib/libstdc++.a(functexcept.o)
                0xfff06a5c                std::__throw_regex_error(std::regex_constants::error_type)
 .text._ZNSt17bad_function_callD2Ev
                0xfff06abd        0xa ./gr_common/lib/libstdc++.a(functional.o)
                0xfff06abd                std::bad_function_call::~bad_function_call()
                0xfff06abd                std::bad_function_call::~bad_function_call()
 .text._ZNSt17bad_function_callD0Ev
                0xfff06ac7       0x16 ./gr_common/lib/libstdc++.a(functional.o)
                0xfff06ac7                std::bad_function_call::~bad_function_call()
 .text._ZNKSt8ios_base7failure4whatEv
                0xfff06add        0x3 ./gr_common/lib/libstdc++.a(ios_failure.o)
                0xfff06add                std::ios_base::failure::what() const
 .text._ZNSt8ios_base7failureD2Ev
                0xfff06ae0       0x38 ./gr_common/lib/libstdc++.a(ios_failure.o)
                0xfff06ae0                std::ios_base::failure::~failure()
                0xfff06ae0                std::ios_base::failure::~failure()
 .text._ZNSt8ios_base7failureD0Ev
                0xfff06b18       0x10 ./gr_common/lib/libstdc++.a(ios_failure.o)
                0xfff06b18                std::ios_base::failure::~failure()
 .text._ZNSt8ios_base7failureC2ERKSs
                0xfff06b28       0x6e ./gr_common/lib/libstdc++.a(ios_failure.o)
                0xfff06b28                std::ios_base::failure::failure(std::string const&)
                0xfff06b28                std::ios_base::failure::failure(std::string const&)
 .text._ZNKSt11logic_error4whatEv
                0xfff06b96        0x3 ./gr_common/lib/libstdc++.a(stdexcept.o)
                0xfff06b96                std::logic_error::what() const
 .text._ZNKSt13runtime_error4whatEv
                0xfff06b99        0x3 ./gr_common/lib/libstdc++.a(stdexcept.o)
                0xfff06b99                std::runtime_error::what() const
 *fill*         0xfff06b9c        0x4 00
 .text._ZNSt11logic_errorD2Ev
                0xfff06ba0       0x38 ./gr_common/lib/libstdc++.a(stdexcept.o)
                0xfff06ba0                std::logic_error::~logic_error()
                0xfff06ba0                std::logic_error::~logic_error()
 .text._ZNSt12out_of_rangeD2Ev
                0xfff06bd8        0xa ./gr_common/lib/libstdc++.a(stdexcept.o)
                0xfff06bd8                std::out_of_range::~out_of_range()
                0xfff06bd8                std::out_of_range::~out_of_range()
 .text._ZNSt12out_of_rangeD0Ev
                0xfff06be2       0x16 ./gr_common/lib/libstdc++.a(stdexcept.o)
                0xfff06be2                std::out_of_range::~out_of_range()
 .text._ZNSt12length_errorD2Ev
                0xfff06bf8        0xa ./gr_common/lib/libstdc++.a(stdexcept.o)
                0xfff06bf8                std::length_error::~length_error()
                0xfff06bf8                std::length_error::~length_error()
 .text._ZNSt12length_errorD0Ev
                0xfff06c02       0x16 ./gr_common/lib/libstdc++.a(stdexcept.o)
                0xfff06c02                std::length_error::~length_error()
 .text._ZNSt16invalid_argumentD2Ev
                0xfff06c18        0xa ./gr_common/lib/libstdc++.a(stdexcept.o)
                0xfff06c18                std::invalid_argument::~invalid_argument()
                0xfff06c18                std::invalid_argument::~invalid_argument()
 .text._ZNSt16invalid_argumentD0Ev
                0xfff06c22       0x16 ./gr_common/lib/libstdc++.a(stdexcept.o)
                0xfff06c22                std::invalid_argument::~invalid_argument()
 .text._ZNSt12domain_errorD2Ev
                0xfff06c38        0xa ./gr_common/lib/libstdc++.a(stdexcept.o)
                0xfff06c38                std::domain_error::~domain_error()
                0xfff06c38                std::domain_error::~domain_error()
 .text._ZNSt12domain_errorD0Ev
                0xfff06c42       0x16 ./gr_common/lib/libstdc++.a(stdexcept.o)
                0xfff06c42                std::domain_error::~domain_error()
 .text._ZNSt11logic_errorD0Ev
                0xfff06c58       0x10 ./gr_common/lib/libstdc++.a(stdexcept.o)
                0xfff06c58                std::logic_error::~logic_error()
 .text._ZNSt13runtime_errorD2Ev
                0xfff06c68       0x38 ./gr_common/lib/libstdc++.a(stdexcept.o)
                0xfff06c68                std::runtime_error::~runtime_error()
                0xfff06c68                std::runtime_error::~runtime_error()
 .text._ZNSt15underflow_errorD2Ev
                0xfff06ca0        0xa ./gr_common/lib/libstdc++.a(stdexcept.o)
                0xfff06ca0                std::underflow_error::~underflow_error()
                0xfff06ca0                std::underflow_error::~underflow_error()
 .text._ZNSt15underflow_errorD0Ev
                0xfff06caa       0x16 ./gr_common/lib/libstdc++.a(stdexcept.o)
                0xfff06caa                std::underflow_error::~underflow_error()
 .text._ZNSt14overflow_errorD2Ev
                0xfff06cc0        0xa ./gr_common/lib/libstdc++.a(stdexcept.o)
                0xfff06cc0                std::overflow_error::~overflow_error()
                0xfff06cc0                std::overflow_error::~overflow_error()
 .text._ZNSt14overflow_errorD0Ev
                0xfff06cca       0x16 ./gr_common/lib/libstdc++.a(stdexcept.o)
                0xfff06cca                std::overflow_error::~overflow_error()
 .text._ZNSt11range_errorD2Ev
                0xfff06ce0        0xa ./gr_common/lib/libstdc++.a(stdexcept.o)
                0xfff06ce0                std::range_error::~range_error()
                0xfff06ce0                std::range_error::~range_error()
 .text._ZNSt11range_errorD0Ev
                0xfff06cea       0x16 ./gr_common/lib/libstdc++.a(stdexcept.o)
                0xfff06cea                std::range_error::~range_error()
 .text._ZNSt13runtime_errorD0Ev
                0xfff06d00       0x10 ./gr_common/lib/libstdc++.a(stdexcept.o)
                0xfff06d00                std::runtime_error::~runtime_error()
 .text._ZNSt11logic_errorC2ERKSs
                0xfff06d10       0x59 ./gr_common/lib/libstdc++.a(stdexcept.o)
                0xfff06d10                std::logic_error::logic_error(std::string const&)
                0xfff06d10                std::logic_error::logic_error(std::string const&)
 .text._ZNSt12domain_errorC2ERKSs
                0xfff06d69       0x11 ./gr_common/lib/libstdc++.a(stdexcept.o)
                0xfff06d69                std::domain_error::domain_error(std::string const&)
                0xfff06d69                std::domain_error::domain_error(std::string const&)
 .text._ZNSt16invalid_argumentC2ERKSs
                0xfff06d7a       0x11 ./gr_common/lib/libstdc++.a(stdexcept.o)
                0xfff06d7a                std::invalid_argument::invalid_argument(std::string const&)
                0xfff06d7a                std::invalid_argument::invalid_argument(std::string const&)
 .text._ZNSt12length_errorC2ERKSs
                0xfff06d8b       0x11 ./gr_common/lib/libstdc++.a(stdexcept.o)
                0xfff06d8b                std::length_error::length_error(std::string const&)
                0xfff06d8b                std::length_error::length_error(std::string const&)
 .text._ZNSt12out_of_rangeC2ERKSs
                0xfff06d9c       0x11 ./gr_common/lib/libstdc++.a(stdexcept.o)
                0xfff06d9c                std::out_of_range::out_of_range(std::string const&)
                0xfff06d9c                std::out_of_range::out_of_range(std::string const&)
 .text._ZNSt13runtime_errorC2ERKSs
                0xfff06dad       0x59 ./gr_common/lib/libstdc++.a(stdexcept.o)
                0xfff06dad                std::runtime_error::runtime_error(std::string const&)
                0xfff06dad                std::runtime_error::runtime_error(std::string const&)
 .text._ZNSt11range_errorC2ERKSs
                0xfff06e06       0x11 ./gr_common/lib/libstdc++.a(stdexcept.o)
                0xfff06e06                std::range_error::range_error(std::string const&)
                0xfff06e06                std::range_error::range_error(std::string const&)
 .text._ZNSt14overflow_errorC2ERKSs
                0xfff06e17       0x11 ./gr_common/lib/libstdc++.a(stdexcept.o)
                0xfff06e17                std::overflow_error::overflow_error(std::string const&)
                0xfff06e17                std::overflow_error::overflow_error(std::string const&)
 .text._ZNSt15underflow_errorC2ERKSs
                0xfff06e28       0x11 ./gr_common/lib/libstdc++.a(stdexcept.o)
                0xfff06e28                std::underflow_error::underflow_error(std::string const&)
                0xfff06e28                std::underflow_error::underflow_error(std::string const&)
 .text._ZNK12_GLOBAL__N_122generic_error_category4nameEv
                0xfff06e39        0x7 ./gr_common/lib/libstdc++.a(system_error.o)
 .text._ZNK12_GLOBAL__N_121system_error_category4nameEv
                0xfff06e40        0x7 ./gr_common/lib/libstdc++.a(system_error.o)
 .text._ZNSt14error_categoryD2Ev
                0xfff06e47        0x7 ./gr_common/lib/libstdc++.a(system_error.o)
                0xfff06e47                std::error_category::~error_category()
                0xfff06e47                std::error_category::~error_category()
 .text._ZNKSt14error_category23default_error_conditionEi
                0xfff06e4e        0x7 ./gr_common/lib/libstdc++.a(system_error.o)
                0xfff06e4e                std::error_category::default_error_condition(int) const
 .text._ZNKSt14error_category10equivalentEiRKSt15error_condition
                0xfff06e55       0x28 ./gr_common/lib/libstdc++.a(system_error.o)
                0xfff06e55                std::error_category::equivalent(int, std::error_condition const&) const
 .text._ZNKSt14error_category10equivalentERKSt10error_codei
                0xfff06e7d       0x19 ./gr_common/lib/libstdc++.a(system_error.o)
                0xfff06e7d                std::error_category::equivalent(std::error_code const&, int) const
 .text._ZN12_GLOBAL__N_121system_error_categoryD2Ev
                0xfff06e96        0x7 ./gr_common/lib/libstdc++.a(system_error.o)
 .text._ZN12_GLOBAL__N_122generic_error_categoryD2Ev
                0xfff06e9d        0x7 ./gr_common/lib/libstdc++.a(system_error.o)
 .text._ZNK12_GLOBAL__N_122generic_error_category7messageEi
                0xfff06ea4       0x1b ./gr_common/lib/libstdc++.a(system_error.o)
 .text._ZNK12_GLOBAL__N_121system_error_category7messageEi
                0xfff06ebf       0x1b ./gr_common/lib/libstdc++.a(system_error.o)
 .text._ZN12_GLOBAL__N_121system_error_categoryD0Ev
                0xfff06eda        0xa ./gr_common/lib/libstdc++.a(system_error.o)
 .text._ZN12_GLOBAL__N_122generic_error_categoryD0Ev
                0xfff06ee4        0xa ./gr_common/lib/libstdc++.a(system_error.o)
 .text._ZNSt14error_categoryD0Ev
                0xfff06eee        0xa ./gr_common/lib/libstdc++.a(system_error.o)
                0xfff06eee                std::error_category::~error_category()
 .text._ZNSt12system_errorD2Ev
                0xfff06ef8        0xa ./gr_common/lib/libstdc++.a(system_error.o)
                0xfff06ef8                std::system_error::~system_error()
                0xfff06ef8                std::system_error::~system_error()
 .text._ZNSt12system_errorD0Ev
                0xfff06f02       0x16 ./gr_common/lib/libstdc++.a(system_error.o)
                0xfff06f02                std::system_error::~system_error()
 .text._ZNSt14error_categoryC2Ev
                0xfff06f18        0x7 ./gr_common/lib/libstdc++.a(system_error.o)
                0xfff06f18                std::error_category::error_category()
                0xfff06f18                std::error_category::error_category()
 .text._ZSt15system_categoryv
                0xfff06f1f        0x7 ./gr_common/lib/libstdc++.a(system_error.o)
                0xfff06f1f                std::system_category()
 .text._ZSt16generic_categoryv
                0xfff06f26        0x7 ./gr_common/lib/libstdc++.a(system_error.o)
                0xfff06f26                std::generic_category()
 .text._ZNKSt10error_code23default_error_conditionEv
                0xfff06f2d        0xe ./gr_common/lib/libstdc++.a(system_error.o)
                0xfff06f2d                std::error_code::default_error_condition() const
 .text.startup._GLOBAL__sub_I__ZNSt14error_categoryC2Ev
                0xfff06f3b       0x3c ./gr_common/lib/libstdc++.a(system_error.o)
 .text._ZNSt11regex_errorD2Ev
                0xfff06f77        0xa ./gr_common/lib/libstdc++.a(regex.o)
                0xfff06f77                std::regex_error::~regex_error()
                0xfff06f77                std::regex_error::~regex_error()
 .text._ZNSt11regex_errorD0Ev
                0xfff06f81       0x16 ./gr_common/lib/libstdc++.a(regex.o)
                0xfff06f81                std::regex_error::~regex_error()
 *fill*         0xfff06f97        0x1 00
 .text._ZNSt11regex_errorC2ENSt15regex_constants10error_typeE
                0xfff06f98       0xa0 ./gr_common/lib/libstdc++.a(regex.o)
                0xfff06f98                std::regex_error::regex_error(std::regex_constants::error_type)
                0xfff06f98                std::regex_error::regex_error(std::regex_constants::error_type)
 .text._ZNK12_GLOBAL__N_121future_error_category4nameEv
                0xfff07038        0x7 ./gr_common/lib/libstdc++.a(future.o)
 .text._ZNSt12future_errorD2Ev
                0xfff0703f        0xa ./gr_common/lib/libstdc++.a(future.o)
                0xfff0703f                std::future_error::~future_error()
                0xfff0703f                std::future_error::~future_error()
 .text._ZNSt12future_errorD0Ev
                0xfff07049       0x16 ./gr_common/lib/libstdc++.a(future.o)
                0xfff07049                std::future_error::~future_error()
 .text._ZN12_GLOBAL__N_121future_error_categoryD2Ev
                0xfff0705f        0xa ./gr_common/lib/libstdc++.a(future.o)
 .text._ZN12_GLOBAL__N_121future_error_categoryD0Ev
                0xfff07069       0x16 ./gr_common/lib/libstdc++.a(future.o)
 *fill*         0xfff0707f        0x1 00
 .text._ZNKSt12future_error4whatEv
                0xfff07080       0x88 ./gr_common/lib/libstdc++.a(future.o)
                0xfff07080                std::future_error::what() const
 .text._ZNK12_GLOBAL__N_121future_error_category7messageEi
                0xfff07108       0xf0 ./gr_common/lib/libstdc++.a(future.o)
 .text._ZSt15future_categoryv
                0xfff071f8       0xa8 ./gr_common/lib/libstdc++.a(future.o)
                0xfff071f8                std::future_category()
 .text._ZNKSt10bad_typeid4whatEv
                0xfff072a0        0x7 ./gr_common/lib/libstdc++.a(bad_typeid.o)
                0xfff072a0                std::bad_typeid::what() const
 .text._ZNSt10bad_typeidD2Ev
                0xfff072a7        0xa ./gr_common/lib/libstdc++.a(bad_typeid.o)
                0xfff072a7                std::bad_typeid::~bad_typeid()
                0xfff072a7                std::bad_typeid::~bad_typeid()
 .text._ZNSt10bad_typeidD0Ev
                0xfff072b1       0x16 ./gr_common/lib/libstdc++.a(bad_typeid.o)
                0xfff072b1                std::bad_typeid::~bad_typeid()
 .text._ZNKSt9bad_alloc4whatEv
                0xfff072c7        0x7 ./gr_common/lib/libstdc++.a(bad_alloc.o)
                0xfff072c7                std::bad_alloc::what() const
 .text._ZNSt9bad_allocD2Ev
                0xfff072ce        0xa ./gr_common/lib/libstdc++.a(bad_alloc.o)
                0xfff072ce                std::bad_alloc::~bad_alloc()
                0xfff072ce                std::bad_alloc::~bad_alloc()
 .text._ZNSt9bad_allocD0Ev
                0xfff072d8       0x16 ./gr_common/lib/libstdc++.a(bad_alloc.o)
                0xfff072d8                std::bad_alloc::~bad_alloc()
 *fill*         0xfff072ee        0x2 00
 .text._ZL23__gxx_exception_cleanup19_Unwind_Reason_CodeP17_Unwind_Exception
                0xfff072f0       0x30 ./gr_common/lib/libstdc++.a(eh_throw.o)
 .text.__cxa_throw
                0xfff07320       0x4c ./gr_common/lib/libstdc++.a(eh_throw.o)
                0xfff07320                __cxa_throw
 *fill*         0xfff0736c        0x4 00
 .text.__cxa_rethrow
                0xfff07370       0x50 ./gr_common/lib/libstdc++.a(eh_throw.o)
                0xfff07370                __cxa_rethrow
 .text._ZN10__cxxabiv120__si_class_type_infoD2Ev
                0xfff073c0        0xa ./gr_common/lib/libstdc++.a(si_class_type_info.o)
                0xfff073c0                __cxxabiv1::__si_class_type_info::~__si_class_type_info()
                0xfff073c0                __cxxabiv1::__si_class_type_info::~__si_class_type_info()
 .text._ZN10__cxxabiv120__si_class_type_infoD0Ev
                0xfff073ca       0x16 ./gr_common/lib/libstdc++.a(si_class_type_info.o)
                0xfff073ca                __cxxabiv1::__si_class_type_info::~__si_class_type_info()
 .text._ZNK10__cxxabiv120__si_class_type_info11__do_upcastEPKNS_17__class_type_infoEPKvRNS1_15__upcast_resultE
                0xfff073e0       0x33 ./gr_common/lib/libstdc++.a(si_class_type_info.o)
                0xfff073e0                __cxxabiv1::__si_class_type_info::__do_upcast(__cxxabiv1::__class_type_info const*, void const*, __cxxabiv1::__class_type_info::__upcast_result&) const
 *fill*         0xfff07413        0x5 00
 .text._ZNK10__cxxabiv120__si_class_type_info12__do_dyncastElNS_17__class_type_info10__sub_kindEPKS1_PKvS4_S6_RNS1_16__dyncast_resultE
                0xfff07418       0xc0 ./gr_common/lib/libstdc++.a(si_class_type_info.o)
                0xfff07418                __cxxabiv1::__si_class_type_info::__do_dyncast(long, __cxxabiv1::__class_type_info::__sub_kind, __cxxabiv1::__class_type_info const*, void const*, __cxxabiv1::__class_type_info const*, void const*, __cxxabiv1::__class_type_info::__dyncast_result&) const
 .text._ZNK10__cxxabiv120__si_class_type_info20__do_find_public_srcElPKvPKNS_17__class_type_infoES2_
                0xfff074d8       0x50 ./gr_common/lib/libstdc++.a(si_class_type_info.o)
                0xfff074d8                __cxxabiv1::__si_class_type_info::__do_find_public_src(long, void const*, __cxxabiv1::__class_type_info const*, void const*) const
 .text._ZSt15set_new_handlerPFvvE
                0xfff07528        0xd ./gr_common/lib/libstdc++.a(new_handler.o)
                0xfff07528                std::set_new_handler(void (*)())
 .text._ZNKSt8bad_cast4whatEv
                0xfff07535        0x7 ./gr_common/lib/libstdc++.a(bad_cast.o)
                0xfff07535                std::bad_cast::what() const
 .text._ZNSt8bad_castD2Ev
                0xfff0753c        0xa ./gr_common/lib/libstdc++.a(bad_cast.o)
                0xfff0753c                std::bad_cast::~bad_cast()
                0xfff0753c                std::bad_cast::~bad_cast()
 .text._ZNSt8bad_castD0Ev
                0xfff07546       0x16 ./gr_common/lib/libstdc++.a(bad_cast.o)
                0xfff07546                std::bad_cast::~bad_cast()
 .text._ZNK10__cxxabiv117__class_type_info11__do_upcastEPKS0_PPv
                0xfff0755c       0x3c ./gr_common/lib/libstdc++.a(class_type_info.o)
                0xfff0755c                __cxxabiv1::__class_type_info::__do_upcast(__cxxabiv1::__class_type_info const*, void**) const
 .text._ZNK10__cxxabiv117__class_type_info20__do_find_public_srcElPKvPKS0_S2_
                0xfff07598        0xe ./gr_common/lib/libstdc++.a(class_type_info.o)
                0xfff07598                __cxxabiv1::__class_type_info::__do_find_public_src(long, void const*, __cxxabiv1::__class_type_info const*, void const*) const
 .text._ZN10__cxxabiv117__class_type_infoD2Ev
                0xfff075a6        0xa ./gr_common/lib/libstdc++.a(class_type_info.o)
                0xfff075a6                __cxxabiv1::__class_type_info::~__class_type_info()
                0xfff075a6                __cxxabiv1::__class_type_info::~__class_type_info()
 .text._ZN10__cxxabiv117__class_type_infoD0Ev
                0xfff075b0       0x16 ./gr_common/lib/libstdc++.a(class_type_info.o)
                0xfff075b0                __cxxabiv1::__class_type_info::~__class_type_info()
 *fill*         0xfff075c6        0x2 00
 .text._ZNK10__cxxabiv117__class_type_info11__do_upcastEPKS0_PKvRNS0_15__upcast_resultE
                0xfff075c8       0x40 ./gr_common/lib/libstdc++.a(class_type_info.o)
                0xfff075c8                __cxxabiv1::__class_type_info::__do_upcast(__cxxabiv1::__class_type_info const*, void const*, __cxxabiv1::__class_type_info::__upcast_result&) const
 .text._ZNK10__cxxabiv117__class_type_info10__do_catchEPKSt9type_infoPPvj
                0xfff07608       0x58 ./gr_common/lib/libstdc++.a(class_type_info.o)
                0xfff07608                __cxxabiv1::__class_type_info::__do_catch(std::type_info const*, void**, unsigned int) const
 .text._ZNK10__cxxabiv117__class_type_info12__do_dyncastElNS0_10__sub_kindEPKS0_PKvS3_S5_RNS0_16__dyncast_resultE
                0xfff07660       0x78 ./gr_common/lib/libstdc++.a(class_type_info.o)
                0xfff07660                __cxxabiv1::__class_type_info::__do_dyncast(long, __cxxabiv1::__class_type_info::__sub_kind, __cxxabiv1::__class_type_info const*, void const*, __cxxabiv1::__class_type_info const*, void const*, __cxxabiv1::__class_type_info::__dyncast_result&) const
 .text.__cxa_call_terminate
                0xfff076d8       0x38 ./gr_common/lib/libstdc++.a(eh_call.o)
                0xfff076d8                __cxa_call_terminate
 .text.__cxa_guard_acquire
                0xfff07710       0x31 ./gr_common/lib/libstdc++.a(guard.o)
                0xfff07710                __cxa_guard_acquire
 .text.__cxa_guard_abort
                0xfff07741        0x4 ./gr_common/lib/libstdc++.a(guard.o)
                0xfff07741                __cxa_guard_abort
 .text.__cxa_guard_release
                0xfff07745        0x7 ./gr_common/lib/libstdc++.a(guard.o)
                0xfff07745                __cxa_guard_release
 .text._ZNSt9type_infoD2Ev
                0xfff0774c        0x7 ./gr_common/lib/libstdc++.a(tinfo.o)
                0xfff0774c                std::type_info::~type_info()
                0xfff0774c                std::type_info::~type_info()
 .text._ZNKSt9type_info14__is_pointer_pEv
                0xfff07753        0x5 ./gr_common/lib/libstdc++.a(tinfo.o)
                0xfff07753                std::type_info::__is_pointer_p() const
 .text._ZNKSt9type_info15__is_function_pEv
                0xfff07758        0x5 ./gr_common/lib/libstdc++.a(tinfo.o)
                0xfff07758                std::type_info::__is_function_p() const
 .text._ZNKSt9type_info11__do_upcastEPKN10__cxxabiv117__class_type_infoEPPv
                0xfff0775d        0x5 ./gr_common/lib/libstdc++.a(tinfo.o)
                0xfff0775d                std::type_info::__do_upcast(__cxxabiv1::__class_type_info const*, void**) const
 .text._ZNKSt9type_info10__do_catchEPKS_PPvj
                0xfff07762       0x3f ./gr_common/lib/libstdc++.a(tinfo.o)
                0xfff07762                std::type_info::__do_catch(std::type_info const*, void**, unsigned int) const
 .text._ZNSt9type_infoD0Ev
                0xfff077a1        0xa ./gr_common/lib/libstdc++.a(tinfo.o)
                0xfff077a1                std::type_info::~type_info()
 *fill*         0xfff077ab        0x5 00
 .text._ZN9__gnu_cxx27__verbose_terminate_handlerEv
                0xfff077b0      0x1b8 ./gr_common/lib/libstdc++.a(vterminate.o)
                0xfff077b0                __gnu_cxx::__verbose_terminate_handler()
 .text._ZN9__gnu_cxx20recursive_init_errorD2Ev
                0xfff07968        0xa ./gr_common/lib/libstdc++.a(guard_error.o)
                0xfff07968                __gnu_cxx::recursive_init_error::~recursive_init_error()
                0xfff07968                __gnu_cxx::recursive_init_error::~recursive_init_error()
 .text._ZN9__gnu_cxx20recursive_init_errorD0Ev
                0xfff07972       0x16 ./gr_common/lib/libstdc++.a(guard_error.o)
                0xfff07972                __gnu_cxx::recursive_init_error::~recursive_init_error()
 .text.__cxa_current_exception_type
                0xfff07988       0x1e ./gr_common/lib/libstdc++.a(eh_type.o)
                0xfff07988                __cxa_current_exception_type
 .text.abort    0xfff079a6        0xc ./gr_common/lib/\libc.a(lib_a-abort.o)
                0xfff079a6                abort
 .text._fputc_r
                0xfff079b2       0x26 ./gr_common/lib/\libc.a(lib_a-fputc.o)
                0xfff079b2                _fputc_r
 .text.fputc    0xfff079d8       0x12 ./gr_common/lib/\libc.a(lib_a-fputc.o)
                0xfff079d8                fputc
 .text._fputs_r
                0xfff079ea       0x54 ./gr_common/lib/\libc.a(lib_a-fputs.o)
                0xfff079ea                _fputs_r
 .text.fputs    0xfff07a3e       0x12 ./gr_common/lib/\libc.a(lib_a-fputs.o)
                0xfff07a3e                fputs
 .text.__sfvwrite_r
                0xfff07a50      0x296 ./gr_common/lib/\libc.a(lib_a-fvwrite.o)
                0xfff07a50                __sfvwrite_r
 .text._fwrite_r
                0xfff07ce6       0x64 ./gr_common/lib/\libc.a(lib_a-fwrite.o)
                0xfff07ce6                _fwrite_r
 .text.fwrite   0xfff07d4a       0x1e ./gr_common/lib/\libc.a(lib_a-fwrite.o)
                0xfff07d4a                fwrite
 .text.malloc   0xfff07d68        0xe ./gr_common/lib/\libc.a(lib_a-malloc.o)
                0xfff07d68                malloc
 .text.free     0xfff07d76        0xe ./gr_common/lib/\libc.a(lib_a-malloc.o)
                0xfff07d76                free
 .text.memcmp   0xfff07d84       0x18 ./gr_common/lib/\libc.a(lib_a-memcmp.o)
                0xfff07d84                memcmp
 .text._putc_r  0xfff07d9c       0x58 ./gr_common/lib/\libc.a(lib_a-putc.o)
                0xfff07d9c                _putc_r
 .text.putc     0xfff07df4       0x12 ./gr_common/lib/\libc.a(lib_a-putc.o)
                0xfff07df4                putc
 .text.realloc  0xfff07e06       0x12 ./gr_common/lib/\libc.a(lib_a-realloc.o)
                0xfff07e06                realloc
 .text._init_signal_r
                0xfff07e18       0x34 ./gr_common/lib/\libc.a(lib_a-signal.o)
                0xfff07e18                _init_signal_r
 .text._signal_r
                0xfff07e4c       0x32 ./gr_common/lib/\libc.a(lib_a-signal.o)
                0xfff07e4c                _signal_r
 .text._raise_r
                0xfff07e7e       0x54 ./gr_common/lib/\libc.a(lib_a-signal.o)
                0xfff07e7e                _raise_r
 .text.__sigtramp_r
                0xfff07ed2       0x4c ./gr_common/lib/\libc.a(lib_a-signal.o)
                0xfff07ed2                __sigtramp_r
 .text.raise    0xfff07f1e        0xe ./gr_common/lib/\libc.a(lib_a-signal.o)
                0xfff07f1e                raise
 .text.signal   0xfff07f2c       0x12 ./gr_common/lib/\libc.a(lib_a-signal.o)
                0xfff07f2c                signal
 .text._init_signal
                0xfff07f3e        0xc ./gr_common/lib/\libc.a(lib_a-signal.o)
                0xfff07f3e                _init_signal
 .text.__sigtramp
                0xfff07f4a        0xe ./gr_common/lib/\libc.a(lib_a-signal.o)
                0xfff07f4a                __sigtramp
 .text._kill_r  0xfff07f58       0x24 ./gr_common/lib/\libc.a(lib_a-signalr.o)
                0xfff07f58                _kill_r
 .text._getpid_r
                0xfff07f7c        0x4 ./gr_common/lib/\libc.a(lib_a-signalr.o)
                0xfff07f7c                _getpid_r
 .text.strdup   0xfff07f80        0xe ./gr_common/lib/\libc.a(lib_a-strdup.o)
                0xfff07f80                strdup
 .text._strdup_r
                0xfff07f8e       0x2a ./gr_common/lib/\libc.a(lib_a-strdup_r.o)
                0xfff07f8e                _strdup_r
 .text._strerror_r
                0xfff07fb8      0x2b9 ./gr_common/lib/\libc.a(lib_a-strerror.o)
                0xfff07fb8                _strerror_r
 .text.strerror
                0xfff08271       0x12 ./gr_common/lib/\libc.a(lib_a-strerror.o)
                0xfff08271                strerror
 .text._user_strerror
                0xfff08283        0x3 ./gr_common/lib/\libc.a(lib_a-u_strerr.o)
                0xfff08283                _user_strerror
 .text.__swbuf_r
                0xfff08286       0xaa ./gr_common/lib/\libc.a(lib_a-wbuf.o)
                0xfff08286                __swbuf_r
 .text.__swbuf  0xfff08330       0x12 ./gr_common/lib/\libc.a(lib_a-wbuf.o)
                0xfff08330                __swbuf
 .text.__swsetup_r
                0xfff08342       0xce ./gr_common/lib/\libc.a(lib_a-wsetup.o)
                0xfff08342                __swsetup_r
 .text.__sflush_r
                0xfff08410      0x142 ./gr_common/lib/\libc.a(lib_a-fflush.o)
                0xfff08410                __sflush_r
 .text._fflush_r
                0xfff08552       0x2c ./gr_common/lib/\libc.a(lib_a-fflush.o)
                0xfff08552                _fflush_r
 .text.fflush   0xfff0857e       0x23 ./gr_common/lib/\libc.a(lib_a-fflush.o)
                0xfff0857e                fflush
 .text.__fp_lock
                0xfff085a1        0x3 ./gr_common/lib/\libc.a(lib_a-findfp.o)
 .text.__fp_unlock
                0xfff085a4        0x3 ./gr_common/lib/\libc.a(lib_a-findfp.o)
 .text._cleanup_r
                0xfff085a7        0xa ./gr_common/lib/\libc.a(lib_a-findfp.o)
                0xfff085a7                _cleanup_r
 .text.std.isra.0
                0xfff085b1       0x49 ./gr_common/lib/\libc.a(lib_a-findfp.o)
 .text.__sfmoreglue
                0xfff085fa       0x2e ./gr_common/lib/\libc.a(lib_a-findfp.o)
                0xfff085fa                __sfmoreglue
 .text._cleanup
                0xfff08628        0xc ./gr_common/lib/\libc.a(lib_a-findfp.o)
                0xfff08628                _cleanup
 .text.__sinit  0xfff08634       0x46 ./gr_common/lib/\libc.a(lib_a-findfp.o)
                0xfff08634                __sinit
 .text.__sfp    0xfff0867a       0x8e ./gr_common/lib/\libc.a(lib_a-findfp.o)
                0xfff0867a                __sfp
 .text.__sfp_lock_acquire
                0xfff08708        0x1 ./gr_common/lib/\libc.a(lib_a-findfp.o)
                0xfff08708                __sfp_lock_acquire
 .text.__sfp_lock_release
                0xfff08709        0x1 ./gr_common/lib/\libc.a(lib_a-findfp.o)
                0xfff08709                __sfp_lock_release
 .text.__sinit_lock_acquire
                0xfff0870a        0x1 ./gr_common/lib/\libc.a(lib_a-findfp.o)
                0xfff0870a                __sinit_lock_acquire
 .text.__sinit_lock_release
                0xfff0870b        0x1 ./gr_common/lib/\libc.a(lib_a-findfp.o)
                0xfff0870b                __sinit_lock_release
 .text.__fp_lock_all
                0xfff0870c       0x12 ./gr_common/lib/\libc.a(lib_a-findfp.o)
                0xfff0870c                __fp_lock_all
 .text.__fp_unlock_all
                0xfff0871e       0x12 ./gr_common/lib/\libc.a(lib_a-findfp.o)
                0xfff0871e                __fp_unlock_all
 .text._fwalk   0xfff08730       0x44 ./gr_common/lib/\libc.a(lib_a-fwalk.o)
                0xfff08730                _fwalk
 .text._fwalk_reent
                0xfff08774       0x48 ./gr_common/lib/\libc.a(lib_a-fwalk.o)
                0xfff08774                _fwalk_reent
 .text.__smakebuf_r
                0xfff087bc       0xd6 ./gr_common/lib/\libc.a(lib_a-makebuf.o)
                0xfff087bc                __smakebuf_r
 .text.__sread  0xfff08892       0x26 ./gr_common/lib/\libc.a(lib_a-stdio.o)
                0xfff08892                __sread
 .text.__seofread
                0xfff088b8        0x3 ./gr_common/lib/\libc.a(lib_a-stdio.o)
                0xfff088b8                __seofread
 *fill*         0xfff088bb        0x1 00
 .text.__swrite
                0xfff088bc       0x36 ./gr_common/lib/\libc.a(lib_a-stdio.o)
                0xfff088bc                __swrite
 .text.__sseek  0xfff088f2       0x28 ./gr_common/lib/\libc.a(lib_a-stdio.o)
                0xfff088f2                __sseek
 .text.__sclose
                0xfff0891a        0x6 ./gr_common/lib/\libc.a(lib_a-stdio.o)
                0xfff0891a                __sclose
 .text._write_r
                0xfff08920       0x26 ./gr_common/lib/\libc.a(lib_a-writer.o)
                0xfff08920                _write_r
 .text._close_r
                0xfff08946       0x22 ./gr_common/lib/\libc.a(lib_a-closer.o)
                0xfff08946                _close_r
 .text._fclose_r
                0xfff08968       0x8a ./gr_common/lib/\libc.a(lib_a-fclose.o)
                0xfff08968                _fclose_r
 .text.fclose   0xfff089f2        0xe ./gr_common/lib/\libc.a(lib_a-fclose.o)
                0xfff089f2                fclose
 .text._fstat_r
                0xfff08a00       0x24 ./gr_common/lib/\libc.a(lib_a-fstatr.o)
                0xfff08a00                _fstat_r
 .text._isatty_r
                0xfff08a24       0x22 ./gr_common/lib/\libc.a(lib_a-isattyr.o)
                0xfff08a24                _isatty_r
 .text._lseek_r
                0xfff08a46       0x26 ./gr_common/lib/\libc.a(lib_a-lseekr.o)
                0xfff08a46                _lseek_r
 .text._read_r  0xfff08a6c       0x26 ./gr_common/lib/\libc.a(lib_a-readr.o)
                0xfff08a6c                _read_r
 *(P)
 *fill*         0xfff08a92        0x6 00
 P              0xfff08a98      0x2e0 ./gr_sketch.o
                0xfff08a98                onReceiveUDP(unsigned char*, unsigned char*, unsigned short, unsigned short, unsigned char*, short)
                0xfff08ad1                EtherInit()
                0xfff08b04                setup
                0xfff08b64                waveIndicator()
                0xfff08bce                blinkIndicator()
                0xfff08c29                findNull(unsigned char*, int)
                0xfff08c4d                loop
 P              0xfff08d78      0x16a ./gr_common/intvect.o
                0xfff08d78                Excep_SuperVisorInst
                0xfff08d7a                Excep_UndefinedInst
                0xfff08d7c                Excep_FloatingPoint
                0xfff08d7e                NonMaskableInterrupt
                0xfff08d80                Excep_BRK
                0xfff08d82                Excep_FCUIF_FIFEERR
                0xfff08d84                Excep_FCUIF_FRDYI
                0xfff08d86                Excep_ICU_SWINT
                0xfff08d88                Excep_USB0_D0FIFO0
                0xfff08d8a                Excep_USB0_D1FIFO0
                0xfff08d8c                Excep_USB0_USBI0
                0xfff08db4                Excep_USB1_D0FIFO1
                0xfff08db6                Excep_USB1_D1FIFO1
                0xfff08db8                Excep_USB1_USBI1
                0xfff08de0                Excep_RSPI0_SPRI0
                0xfff08de2                Excep_RSPI0_SPTI0
                0xfff08de4                Excep_RSPI0_SPII0
                0xfff08de6                Excep_RSPI1_SPRI1
                0xfff08de8                Excep_RSPI1_SPTI1
                0xfff08dea                Excep_RSPI1_SPII1
                0xfff08dec                Excep_RSPI2_SPRI2
                0xfff08dee                Excep_RSPI2_SPTI2
                0xfff08df0                Excep_RSPI2_SPII2
                0xfff08df2                Excep_CAN0_RXF0
                0xfff08df4                Excep_CAN0_TXF0
                0xfff08df6                Excep_CAN0_RXM0
                0xfff08df8                Excep_CAN0_TXM0
                0xfff08dfa                Excep_CAN1_RXF1
                0xfff08dfc                Excep_CAN1_TXF1
                0xfff08dfe                Excep_CAN1_RXM1
                0xfff08e00                Excep_CAN1_TXM1
                0xfff08e02                Excep_RTC_CUP
                0xfff08e04                Excep_IRQ8
                0xfff08e06                Excep_IRQ9
                0xfff08e08                Excep_IRQ10
                0xfff08e0a                Excep_IRQ11
                0xfff08e0c                Excep_IRQ12
                0xfff08e0e                Excep_IRQ13
                0xfff08e10                Excep_IRQ14
                0xfff08e12                Excep_IRQ15
                0xfff08e14                Excep_USB_USBR0
                0xfff08e16                Excep_USB_USBR1
                0xfff08e18                Excep_RTC_ALM
                0xfff08e1a                Excep_ADA0_ADI0
                0xfff08e1c                Excep_S12AD0_S12ADI0
                0xfff08e1e                Excep_GROUP_E0
                0xfff08e20                Excep_GROUP_E1
                0xfff08e22                Excep_GROUP_E2
                0xfff08e24                Excep_GROUP_E3
                0xfff08e26                Excep_GROUP_E4
                0xfff08e28                Excep_GROUP_E5
                0xfff08e2a                Excep_GROUP_E6
                0xfff08e2c                Excep_GROUP_L0
                0xfff08e2e                Excep_SCIX_SCIX0
                0xfff08e30                Excep_SCIX_SCIX1
                0xfff08e32                Excep_SCIX_SCIX2
                0xfff08e34                Excep_SCIX_SCIX3
                0xfff08e36                Excep_TPU10_TGIV10
                0xfff08e38                Excep_TPU11_TGIA11
                0xfff08e3a                Excep_TPU11_TGIB11
                0xfff08e3c                Excep_POE2_OEI1
                0xfff08e3e                Excep_POE2_OEI2
                0xfff08e40                Excep_TMR0_CMIB0
                0xfff08e42                Excep_TMR0_OVI0
                0xfff08e44                Excep_TMR1_CMIA1
                0xfff08e46                Excep_TMR1_CMIB1
                0xfff08e48                Excep_TMR1_OVI1
                0xfff08e4a                Excep_TMR2_CMIA2
                0xfff08e4c                Excep_TMR2_CMIB2
                0xfff08e4e                Excep_TMR2_OVI2
                0xfff08e50                Excep_TMR3_CMIA3
                0xfff08e52                Excep_TMR3_CMIB3
                0xfff08e54                Excep_TMR3_OVI3
                0xfff08e56                Excep_RIIC0_EEI0
                0xfff08e58                Excep_RIIC0_RXI0
                0xfff08e5a                Excep_RIIC0_TXI0
                0xfff08e5c                Excep_RIIC0_TEI0
                0xfff08e5e                Excep_RIIC1_EEI0
                0xfff08e60                Excep_RIIC1_RXI0
                0xfff08e62                Excep_RIIC1_TXI0
                0xfff08e64                Excep_RIIC1_TEI0
                0xfff08e66                Excep_RIIC2_EEI0
                0xfff08e68                Excep_RIIC2_RXI0
                0xfff08e6a                Excep_RIIC2_TXI0
                0xfff08e6c                Excep_RIIC2_TEI0
                0xfff08e6e                Excep_RIIC3_EEI0
                0xfff08e70                Excep_RIIC3_RXI0
                0xfff08e72                Excep_RIIC3_TXI0
                0xfff08e74                Excep_RIIC3_TEI0
                0xfff08e76                Excep_DMACA_DMAC0
                0xfff08e78                Excep_DMACA_DMAC1
                0xfff08e7a                Excep_DMACA_DMAC2
                0xfff08e7c                Excep_DMACA_DMAC3
                0xfff08e7e                Excep_EXDMAC_DMAC0
                0xfff08e80                Excep_EXDMAC_DMAC1
                0xfff08e82                Excep_SCI3_RXI3
                0xfff08e84                Excep_SCI3_TXI3
                0xfff08e86                Excep_SCI3_TEI3
                0xfff08e88                Excep_SCI4_RXI4
                0xfff08e8a                Excep_SCI4_TXI4
                0xfff08e8c                Excep_SCI4_TEI4
                0xfff08e8e                Excep_SCI5_RXI5
                0xfff08e90                Excep_SCI5_TXI5
                0xfff08e92                Excep_SCI5_TEI5
                0xfff08e94                Excep_SCI7_RXI7
                0xfff08e96                Excep_SCI7_TXI7
                0xfff08e98                Excep_SCI7_TEI7
                0xfff08e9a                Excep_SCI8_RXI8
                0xfff08e9c                Excep_SCI8_TXI8
                0xfff08e9e                Excep_SCI8_TEI8
                0xfff08ea0                Excep_SCI9_RXI9
                0xfff08ea2                Excep_SCI9_TXI9
                0xfff08ea4                Excep_SCI9_TEI9
                0xfff08ea6                Excep_SCI10_RXI10
                0xfff08ea8                Excep_SCI10_TXI10
                0xfff08eaa                Excep_SCI10_TEI10
                0xfff08eac                Excep_SCI11_RXI11
                0xfff08eae                Excep_SCI11_TXI11
                0xfff08eb0                Excep_SCI11_TEI11
                0xfff08eb2                Excep_SCI12_RXI12
                0xfff08eb4                Excep_SCI12_TXI12
                0xfff08eb6                Excep_SCI12_TEI12
                0xfff08eb8                Excep_IEBUS_IEBINT
                0xfff08eba                Dummy
                0xfff08ebc                UserTMR0InterruptFunction
                0xfff08ebd                Excep_TMR0_CMIA0
                0xfff08edf                Excep_BUSERR
                0xfff08ee1                Excep_RTC_SLEEP
 *fill*         0xfff08ee2        0x6 00
 P              0xfff08ee8      0x120 ./gr_common/lowlevel.o
                0xfff08ee8                sbrk
                0xfff08ee8                _sbrk
                0xfff08ef7                open
                0xfff08efa                read
                0xfff08f70                write
                0xfff08fc9                lseek
                0xfff08fcc                isatty
                0xfff08fcf                fstat
                0xfff09002                close
 P              0xfff09008        0x0 ./gr_common/lib/libc.a(lib_a-errno.o)
 P              0xfff09008        0x0 ./gr_common/lib/libc.a(lib_a-impure.o)
 P              0xfff09008        0x0 ./gr_common/lib/libc.a(lib_a-sprintf.o)
 P              0xfff09008        0x0 ./gr_common/lib/libc.a(lib_a-svfprintf.o)
 P              0xfff09008        0x0 ./gr_common/lib/libc.a(lib_a-dtoa.o)
 P              0xfff09008        0x0 ./gr_common/lib/libc.a(lib_a-locale.o)
 P              0xfff09008        0x0 ./gr_common/lib/libc.a(lib_a-mallocr.o)
 P              0xfff09008        0x0 ./gr_common/lib/libc.a(lib_a-memchr.o)
 P              0xfff09008        0x0 ./gr_common/lib/libc.a(lib_a-memcpy.o)
 P              0xfff09008        0x0 ./gr_common/lib/libc.a(lib_a-mlock.o)
 P              0xfff09008        0x0 ./gr_common/lib/libc.a(lib_a-mprec.o)
 P              0xfff09008        0x0 ./gr_common/lib/libc.a(lib_a-sbrkr.o)
 P              0xfff09008        0x0 ./gr_common/lib/libc.a(lib_a-sf_fpclassify.o)
 P              0xfff09008        0x0 ./gr_common/lib/libc.a(lib_a-strcmp.o)
 P              0xfff09008        0x0 ./gr_common/lib/libc.a(lib_a-strlen.o)
 P              0xfff09008        0x0 ./gr_common/lib/libc.a(lib_a-svfiprintf.o)
 P              0xfff09008        0x0 ./gr_common/lib/libc.a(lib_a-callocr.o)
 P              0xfff09008        0x0 ./gr_common/lib/libc.a(lib_a-freer.o)
 P              0xfff09008        0x0 ./gr_common/lib/libc.a(lib_a-memmove.o)
 P              0xfff09008        0x0 ./gr_common/lib/libc.a(lib_a-memset.o)
 P              0xfff09008        0x0 ./gr_common/lib/libc.a(lib_a-reallocr.o)
 P              0xfff09008        0x0 ./gr_common/lib/libc.a(lib_a-reent.o)
 P              0xfff09008      0x3c8 ./gr_common/lib/libgcc.a(_udivdi3.o)
                0xfff09008                _COM_DIV64u
                0xfff09008                __udivdi3
 P              0xfff093d0      0x398 ./gr_common/lib/libgcc.a(_umoddi3.o)
                0xfff093d0                __umoddi3
                0xfff093d0                _COM_MOD64u
 P              0xfff09768        0x0 ./gr_common/lib/libgcc.a(_clz.o)
 P              0xfff09768        0x0 ./gr_common/lib/libm.a(lib_a-wf_fmod.o)
 P              0xfff09768        0x0 ./gr_common/lib/libm.a(lib_a-ef_fmod.o)
 P              0xfff09768        0x0 ./gr_common/lib/libm.a(lib_a-s_lib_ver.o)
 P              0xfff09768        0x0 ./gr_common/lib/libm.a(lib_a-s_matherr.o)
 P              0xfff09768       0x98 ./gr_common/lib/librxduino.a(analogio.o)
                0xfff09768                analogRead
                0xfff097e1                analogWrite
                0xfff097e5                analogWriteDAC
                0xfff097ee                analogReference
                0xfff097f7                analogWriteFrequency
 P              0xfff09800       0x10 ./gr_common/lib/librxduino.a(delay.o)
                0xfff09800                millis
                0xfff09804                micros
                0xfff09808                delay
                0xfff0980c                delayMicroseconds
 P              0xfff09810       0x98 ./gr_common/lib/librxduino.a(digitalio.o)
                0xfff09810                pinMode
                0xfff09833                digitalWrite
                0xfff09856                digitalRead
                0xfff0985a                pulseIn
 P              0xfff098a8       0x1a ./gr_common/lib/librxduino.a(rxduino.o)
                0xfff098a8                registEthernetHandler
                0xfff098b1                Reboot
 P              0xfff098c2        0x0 ./gr_common/lib/libstdc++.a(string-inst.o)
 P              0xfff098c2        0x0 ./gr_common/lib/libstdc++.a(del_op.o)
 P              0xfff098c2        0x0 ./gr_common/lib/libstdc++.a(eh_catch.o)
 P              0xfff098c2        0x0 ./gr_common/lib/libstdc++.a(eh_personality.o)
 P              0xfff098c2        0x0 ./gr_common/lib/libstdc++.a(eh_exception.o)
 P              0xfff098c2        0x0 ./gr_common/lib/libstdc++.a(new_op.o)
 P              0xfff098c2        0x0 ./gr_common/lib/libstdc++.a(pure.o)
 P              0xfff098c2        0x0 ./gr_common/lib/libstdc++.a(eh_globals.o)
 P              0xfff098c2        0x0 ./gr_common/lib/libstdc++.a(eh_terminate.o)
 P              0xfff098c2        0x0 ./gr_common/lib/libstdc++.a(eh_alloc.o)
 P              0xfff098c2        0x0 ./gr_common/lib/libstdc++.a(functexcept.o)
 P              0xfff098c2        0x0 ./gr_common/lib/libstdc++.a(functional.o)
 P              0xfff098c2        0x0 ./gr_common/lib/libstdc++.a(ios_failure.o)
 P              0xfff098c2        0x0 ./gr_common/lib/libstdc++.a(stdexcept.o)
 P              0xfff098c2        0x0 ./gr_common/lib/libstdc++.a(system_error.o)
 P              0xfff098c2        0x0 ./gr_common/lib/libstdc++.a(regex.o)
 P              0xfff098c2        0x0 ./gr_common/lib/libstdc++.a(future.o)
 P              0xfff098c2        0x0 ./gr_common/lib/libstdc++.a(bad_typeid.o)
 P              0xfff098c2        0x0 ./gr_common/lib/libstdc++.a(bad_alloc.o)
 P              0xfff098c2        0x0 ./gr_common/lib/libstdc++.a(eh_throw.o)
 P              0xfff098c2        0x0 ./gr_common/lib/libstdc++.a(eh_unex_handler.o)
 P              0xfff098c2        0x0 ./gr_common/lib/libstdc++.a(si_class_type_info.o)
 P              0xfff098c2        0x0 ./gr_common/lib/libstdc++.a(new_handler.o)
 P              0xfff098c2        0x0 ./gr_common/lib/libstdc++.a(bad_cast.o)
 P              0xfff098c2        0x0 ./gr_common/lib/libstdc++.a(eh_term_handler.o)
 P              0xfff098c2        0x0 ./gr_common/lib/libstdc++.a(class_type_info.o)
 P              0xfff098c2        0x0 ./gr_common/lib/libstdc++.a(eh_call.o)
 P              0xfff098c2        0x0 ./gr_common/lib/libstdc++.a(guard.o)
 P              0xfff098c2        0x0 ./gr_common/lib/libstdc++.a(tinfo.o)
 P              0xfff098c2        0x0 ./gr_common/lib/libstdc++.a(vterminate.o)
 *fill*         0xfff098c2        0x6 00
 P              0xfff098c8     0x4680 ./gr_common/lib/libstdc++.a(cp-demangle.o)
                0xfff0de5e                __cxa_demangle
                0xfff0df30                __gcclibcxx_demangle_callback
 P              0xfff0df48        0x0 ./gr_common/lib/libstdc++.a(guard_error.o)
 P              0xfff0df48        0x0 ./gr_common/lib/libstdc++.a(eh_type.o)
 P              0xfff0df48       0xee ./gr_common/lib/libtkdnhal.a(hwsetup.o)
                0xfff0df48                sdram_init
                0xfff0df49                tkdn_hwsetup
 *fill*         0xfff0e036        0x2 00
 P              0xfff0e038     0x1100 ./gr_common/lib/libtkdnhal.a(tkdn_sci.o)
                0xfff0e1fb                sci_getport
                0xfff0e207                sci_readdata
                0xfff0e208                sci_convert_crlf
                0xfff0e217                sci_flush
                0xfff0e234                Excep_SCI0_ERI0
                0xfff0e25d                Excep_SCI0_RXI0
                0xfff0e286                Excep_SCI0_TXI0
                0xfff0e2c0                Excep_SCI0_TEI0
                0xfff0e2d8                Excep_SCI1_ERI1
                0xfff0e302                Excep_SCI1_RXI1
                0xfff0e32c                Excep_SCI1_TXI1
                0xfff0e368                Excep_SCI1_TEI1
                0xfff0e380                Excep_SCI2_ERI2
                0xfff0e3aa                Excep_SCI2_RXI2
                0xfff0e3d4                Excep_SCI2_TXI2
                0xfff0e410                Excep_SCI2_TEI2
                0xfff0e428                Excep_SCI6_ERI6
                0xfff0e452                Excep_SCI6_RXI6
                0xfff0e47c                Excep_SCI6_TXI6
                0xfff0e4b8                Excep_SCI6_TEI6
                0xfff0e4d0                sci_putc_ex
                0xfff0e64d                sci_putc
                0xfff0e65b                sci_puts_ex
                0xfff0e691                sci_puts
                0xfff0e69f                sci_getc_ex
                0xfff0e70b                sci_getc
                0xfff0e717                sci_writedata_ex
                0xfff0e8ee                sci_writedata
                0xfff0e900                sci_readdata_ex
                0xfff0e901                sci_rxcount_ex
                0xfff0e91c                sci_gets_ex
                0xfff0e992                sci_gets
                0xfff0e9a4                sci_rxcount
                0xfff0e9b0                sci_init_ex
                0xfff0f0aa                sci_init
                0xfff0f0cc                sci_getport_ex
                0xfff0f0d0                sci_convert_crlf_ex
                0xfff0f0d7                sci_peek_ex
                0xfff0f105                sci_peek
                0xfff0f111                sci_flush_ex
                0xfff0f128                sci_regist_default
 P              0xfff0f138      0x698 ./gr_common/lib/libtkdnhal.a(tkdn_ether.o)
                0xfff0f138                ether_close
                0xfff0f190                ether_write
                0xfff0f24d                _eth_fifoInit
                0xfff0f2be                _eth_fifoWrite
                0xfff0f2fc                _eth_fifoRead
                0xfff0f350                ether_read
                0xfff0f40f                Excep_ETHER_EINT
                0xfff0f45b                ether_regist_user_rx_procedure
                0xfff0f464                ether_is_linkup
                0xfff0f470                ether_autonegotiate
                0xfff0f4e6                ether_open
                0xfff0f710                ether_is_100M
                0xfff0f719                ether_is_fullduplex
                0xfff0f722                ether_check_recv
                0xfff0f765                ether_change_macaddr
                0xfff0f7b7                ether_enable_promis
 P              0xfff0f7d0      0x1d0 ./gr_common/lib/libtkdnhal.a(tkdn_timer.o)
                0xfff0f837                timer_init
                0xfff0f84a                timer_wait_ms
                0xfff0f8a4                timer_wait_us
                0xfff0f8fc                timer_get_ms
                0xfff0f905                timer_get_us
                0xfff0f91b                timer_regist_userfunc
                0xfff0f926                timer_regist_disktimer
                0xfff0f931                timer_regist_ethertimer
                0xfff0f93c                Excep_CMT0_CMI0
 P              0xfff0f9a0      0x308 ./gr_common/lib/libtkdnhal.a(tkdn_gpio.o)
                0xfff0f9e9                gpio_set_pinmode
                0xfff0fc17                gpio_write_port
                0xfff0fc75                gpio_read_port
 P              0xfff0fca8      0x918 ./gr_common/lib/libtkdnhal.a(tkdn_pwm.o)
                0xfff0fca8                pwm_init
                0xfff0ff94                pwm_output
                0xfff101c4                pwm_stop
                0xfff102e2                Excep_TPU0_TGIA0
                0xfff10318                Excep_TPU0_TGIB0
                0xfff10344                Excep_TPU0_TGIC0
                0xfff10371                Excep_TPU0_TGID0
                0xfff1039e                Excep_TPU1_TGIA1
                0xfff103cb                Excep_TPU1_TGIB1
                0xfff103f8                Excep_TPU2_TGIA2
                0xfff10425                Excep_TPU2_TGIB2
                0xfff10452                Excep_TPU3_TGIA3
                0xfff1047f                Excep_TPU3_TGIB3
                0xfff104ac                Excep_TPU3_TGIC3
                0xfff104d9                Excep_TPU3_TGID3
                0xfff10506                Excep_TPU4_TGIA4
                0xfff10533                Excep_TPU4_TGIB4
                0xfff10560                Excep_TPU5_TGIA5
                0xfff1058d                Excep_TPU5_TGIB5
 P              0xfff105c0      0x238 ./gr_common/lib/libtkdnhal.a(tkdn_tone.o)
                0xfff105c0                tone_start_ex
                0xfff10764                tone_start
                0xfff1076a                tone_stop
                0xfff1078c                Excep_CMT1_CMI1
                0xfff107ae                Excep_CMT2_CMI2
                0xfff107d3                Excep_CMT3_CMI3
 P              0xfff107f8      0x2b8 ./gr_common/lib/libtkdnhal.a(tkdn_adc.o)
                0xfff107f8                adc_init
                0xfff10836                adc_terminate
                0xfff10852                adc_sample
 P              0xfff10ab0       0xf0 ./gr_common/lib/libtkdnhal.a(tkdn_dac.o)
                0xfff10ab0                dac_init
                0xfff10afe                dac_terminate
                0xfff10b15                dac_output
 P              0xfff10ba0      0x248 ./gr_common/lib/libtkdnhal.a(phy.o)
                0xfff10ba0                _phy_reg_read
                0xfff10bde                _phy_ta_z0
                0xfff10c04                _phy_mii_write_1
                0xfff10c2a                _phy_preamble
                0xfff10c42                _phy_mii_write_0
                0xfff10c68                _phy_ta_10
                0xfff10c70                _phy_reg_write
                0xfff10cab                _phy_reg_set
                0xfff10cf9                _phy_write
                0xfff10d1f                phy_set_10half
                0xfff10d27                phy_set_100full
                0xfff10d31                phy_stop
                0xfff10d3b                _phy_read
                0xfff10d62                phy_set_autonegotiate
                0xfff10db2                phy_init
 P              0xfff10de8      0x118 ./gr_common/lib/libtkdnhal.a(usb_cdc.o)
                0xfff10e84                TKUSB_Init
                0xfff10ef1                TKUSB_IsConnected
 P              0xfff10f00      0x338 ./gr_common/lib/libtkdnhal.a(usb_core.o)
                0xfff111be                USBCORE_Init
 P              0xfff11238      0xf90 ./gr_common/lib/libtkdnhal.a(usb_hal.o)
                0xfff11309                TKUSB_RecvByte
                0xfff11368                TKUSB_PeekByte
                0xfff1138e                TKUSB_RecvDataCount
                0xfff113a8                TKUSB_SendByte
                0xfff1141d                TKUSB_SendDataCount
                0xfff11437                USBHAL_Init
                0xfff1169d                USBHAL_Disable
                0xfff116ad                USBHAL_Control_Status
                0xfff116d9                USBHAL_Control_IN
                0xfff116fe                USBHAL_Control_OUT
                0xfff11748                USBHAL_Bulk_OUT
                0xfff11780                ClearOUTBusy
                0xfff1178b                USBHAL_Bulk_IN
                0xfff117cb                USBHAL_Interrupt_IN
                0xfff1180b                USBHAL_Control_Stall
                0xfff11835                USBHAL_Bulk_IN_Stall
                0xfff11854                USBHAL_Bulk_OUT_Stall
                0xfff11873                USBHAL_Interrupt_IN_Stall
                0xfff11892                USBHAL_Bulk_IN_Stall_Clear
                0xfff118cc                USBHAL_Bulk_OUT_Stall_Clear
                0xfff11928                USBHAL_Interrupt_IN_Stall_Clear
                0xfff11962                USBHAL_Bulk_IN_Is_Stalled
                0xfff11982                USBHAL_Bulk_OUT_Is_Stalled
                0xfff119a2                USBHAL_Interrupt_IN_Is_Stalled
                0xfff119c2                USBHAL_Config_Get
                0xfff119c9                USBHAL_Config_Set
                0xfff119df                USBHAL_Reset
                0xfff11b5a                USBHAL_Cancel
                0xfff11ba8                USBHAL_ResetEndpoints
                0xfff11c7a                USBHALInterruptHandler
 P              0xfff121c8        0x0 ./gr_common/lib/libtkdnhal.a(usbdescriptors.o)
 P              0xfff121c8      0x288 ./gr_common/lib/libtkdnhal.a(tkdn_interrupt.o)
                0xfff121ca                attach_interrupt
                0xfff122ee                detach_interrupt
                0xfff12306                Excep_IRQ0
                0xfff1232e                Excep_IRQ1
                0xfff12357                Excep_IRQ2
                0xfff12380                Excep_IRQ3
                0xfff123a9                Excep_IRQ4
                0xfff123d2                Excep_IRQ5
                0xfff123fb                Excep_IRQ6
                0xfff12424                Excep_IRQ7
 P              0xfff12450      0x9a0 ./gr_common/lib/libtkdnhal.a(tkdn_servo.o)
                0xfff12450                servo_attach
                0xfff12728                servo_write_us
                0xfff12804                servo_write
                0xfff12821                servo_read
                0xfff12824                servo_detach
                0xfff129c7                Excep_TPU6_TGIA6
                0xfff129f8                Excep_TPU6_TGIB6
                0xfff12a29                Excep_TPU6_TGIC6
                0xfff12a5a                Excep_TPU6_TGID6
                0xfff12a8b                Excep_TPU6_TGIE6
                0xfff12abc                Excep_TPU6_TGIF6
                0xfff12aed                Excep_TPU7_TGIA7
                0xfff12b1e                Excep_TPU7_TGIB7
                0xfff12b50                Excep_TPU8_TGIA8
                0xfff12b81                Excep_TPU8_TGIB8
                0xfff12bb2                Excep_TPU9_TGIA9
                0xfff12be3                Excep_TPU9_TGIB9
                0xfff12c14                Excep_TPU9_TGIC9
                0xfff12c45                Excep_TPU9_TGID9
                0xfff12c76                Excep_TPU10_TGIA10
                0xfff12ca8                Excep_TPU10_TGIB10
                0xfff12cd9                Excep_TPU10_TGIC10
                0xfff12d0a                Excep_MTU5_TGIU5
                0xfff12d3b                Excep_MTU5_TGIV5
                0xfff12d6c                Excep_MTU5_TGIW5
                0xfff12d9d                Excep_TPU10_TGID10
 P              0xfff12df0       0x38 ./gr_common/lib/libtkdnhal.a(reboot.o)
                0xfff12df0                system_reboot
 P              0xfff12e28      0x650 ./gr_sakura_ethernet/libethernet.a(libethernet.o)
                0xfff12e28                TEthernet::processPackets()
                0xfff12e3e                TEthernet::getVersion(version_info*)
                0xfff12e6f                TEthernet::setHostname(char const*)
                0xfff12e75                TEthernet::begin(unsigned char*)
                0xfff12ee1                TEthernet::begin(unsigned char*, unsigned char*)
                0xfff12efe                TEthernet::begin(unsigned char*, unsigned char*, unsigned char*)
                0xfff12f23                TEthernet::begin(unsigned char*, unsigned char*, unsigned char*, unsigned char*)
                0xfff12f51                TEthernet::begin(unsigned char*, unsigned char*, unsigned char*, unsigned char*, unsigned char*)
                0xfff12f7f                TEthernet::localIP()
                0xfff12fb8                TEthernet::isLinkup()
                0xfff12fc2                TEthernet::dhcp()
                0xfff12fcc                TEthernet::Ping(unsigned char*)
                0xfff1304e                TEthernet::gethostbyname(char const*)
                0xfff13077                TEthernet::Ping(char const*)
                0xfff130a4                TEthernet::sendUDP(unsigned char*, unsigned short, unsigned char*, int)
                0xfff130c1                TEthernet::registUdpHandler(int (*)(unsigned char*, unsigned char*, unsigned short, unsigned short, unsigned char*, short))
                0xfff130c7                EthernetClient::getVersion(version_info*)
                0xfff130ca                EthernetClient::EthernetClient()
                0xfff130ca                EthernetClient::EthernetClient()
                0xfff130d1                EthernetClient::EthernetClient(tcp_str*)
                0xfff130d1                EthernetClient::EthernetClient(tcp_str*)
                0xfff130d7                EthernetClient::operator int()
                0xfff130df                EthernetClient::operator bool()
                0xfff130e7                EthernetClient::connect(unsigned char*, unsigned short)
                0xfff130fd                EthernetClient::connected()
                0xfff13109                EthernetClient::stop()
                0xfff13124                EthernetClient::~EthernetClient()
                0xfff13124                EthernetClient::~EthernetClient()
                0xfff13130                EthernetClient::write(unsigned char)
                0xfff13140                EthernetClient::write(char const*)
                0xfff1315c                EthernetClient::write(unsigned char*, int)
                0xfff13162                EthernetClient::available()
                0xfff13168                EthernetClient::read()
                0xfff1318d                EthernetClient::flush()
                0xfff1318e                EthernetClient::print(int, int)
                0xfff1326f                EthernetClient::println(int, int)
                0xfff13289                EthernetClient::print(char const*)
                0xfff1328d                EthernetClient::println(char const*)
                0xfff132a7                EthernetClient::println()
                0xfff132bb                EthernetServer::EthernetServer(unsigned short)
                0xfff132bb                EthernetServer::EthernetServer(unsigned short)
                0xfff132cc                EthernetServer::~EthernetServer()
                0xfff132cc                EthernetServer::~EthernetServer()
                0xfff132e5                EthernetServer::begin()
                0xfff132eb                EthernetServer::available()
                0xfff13313                EthernetServer::write(unsigned char)
                0xfff13323                EthernetServer::write(char const*)
                0xfff1333f                EthernetServer::write(unsigned char*, int)
                0xfff13345                EthernetServer::print(int, int)
                0xfff13427                EthernetServer::println(int, int)
                0xfff13441                EthernetServer::print(char const*)
                0xfff13445                EthernetServer::println(char const*)
                0xfff1345f                EthernetServer::println()
 P              0xfff13478      0xb18 ./gr_sakura_ethernet/libtkdnip.a(tkdnip.o)
                0xfff134f7                timer_process
                0xfff13528                packet_dump
                0xfff13667                packet_received_handler
                0xfff13668                tketh_random
                0xfff136a8                dns_received
                0xfff13902                udp_received
                0xfff139e0                tketh_process
                0xfff13ad0                theth_led_flush
                0xfff13ada                tketh_open
                0xfff13b6a                tketh_set_hostname
                0xfff13b8b                tketh_get_hostname
                0xfff13b94                tketh_change_macaddr
                0xfff13ba8                tketh_get_macaddr
                0xfff13bb3                tketh_debug
                0xfff13bbc                tketh_set_myipaddr
                0xfff13bdb                tketh_set_gateway
                0xfff13be8                tketh_set_nameserver
                0xfff13bf5                tketh_get_myipaddr
                0xfff13c16                tketh_get_gateway
                0xfff13c25                tketh_get_nameserver
                0xfff13c34                tketh_dhcpc
                0xfff13ca1                tketh_check_link
                0xfff13d35                tketh_free_dns_records
                0xfff13d9c                tketh_nslookup_ex
                0xfff13ee4                tketh_nslookup
                0xfff13f3e                tketh_regist_udp_handler
                0xfff13f47                tketh_send_udp
 P              0xfff13f90      0x2e8 ./gr_sakura_ethernet/libtkdnip.a(arp.o)
                0xfff14001                tketh_arp_table_show
                0xfff140ce                arp_get_mac_by_ip
                0xfff141a8                arp_received
 P              0xfff14278      0x1e8 ./gr_sakura_ethernet/libtkdnip.a(icmp.o)
                0xfff14278                icmp_received
                0xfff1439d                tketh_send_ping
                0xfff1443f                tketh_is_ping_running
                0xfff1444d                tketh_cancel_ping
                0xfff14457                tketh_ping_starttime
 P              0xfff14460      0x400 ./gr_sakura_ethernet/libtkdnip.a(dhcpc.o)
                0xfff14460                send_dhcp2
                0xfff145fc                dhcp_received
 P              0xfff14860      0x2f8 ./gr_sakura_ethernet/libtkdnip.a(ethframe.o)
                0xfff148f1                tketh_ef_build_ip
                0xfff1494c                tketh_ef_alloc_tcp
                0xfff149a9                tketh_ef_alloc_udp
                0xfff14a02                tketh_ef_modify_src
                0xfff14a1e                tketh_ef_free
                0xfff14a26                theth_ef_send_udp
                0xfff14abe                theth_ef_send_tcp
 P              0xfff14b58      0x6b0 ./gr_sakura_ethernet/libtkdnip.a(tcp.o)
                0xfff14b58                tketh_tcp_process
                0xfff14b59                tketh_tcp_cleanup_server
                0xfff14b92                tketh_send_tcp
                0xfff14cc5                tcp_received
                0xfff14f3f                tketh_tcp_connect
                0xfff15029                tketh_tcp_is_connected
                0xfff15031                tketh_tcp_target_addr
                0xfff15076                tketh_tcp_fin
                0xfff15095                tketh_tcp_senddata
                0xfff150ac                tketh_tcp_recvcount
                0xfff150cc                tketh_tcp_recvdata
                0xfff15119                tketh_tcp_open_server
                0xfff15166                tketh_tcp_listen
                0xfff15178                tketh_get_client_stats
                0xfff151da                tketh_tcp_server_terminate
 P              0xfff15208      0x208 ./gr_sakura_ethernet/libtkdnip.a(ip.o)
                0xfff15208                calc_checksum
                0xfff1525b                calc_udpchecksum
                0xfff152b4                ip_send_raw
                0xfff152d8                ip_send
 P              0xfff15410        0x0 ./gr_common/lib/\libc.a(lib_a-abort.o)
 P              0xfff15410        0x0 ./gr_common/lib/\libc.a(lib_a-ctype_.o)
 P              0xfff15410        0x0 ./gr_common/lib/\libc.a(lib_a-fputc.o)
 P              0xfff15410        0x0 ./gr_common/lib/\libc.a(lib_a-fputs.o)
 P              0xfff15410        0x0 ./gr_common/lib/\libc.a(lib_a-fvwrite.o)
 P              0xfff15410        0x0 ./gr_common/lib/\libc.a(lib_a-fwrite.o)
 P              0xfff15410        0x0 ./gr_common/lib/\libc.a(lib_a-malloc.o)
 P              0xfff15410        0x0 ./gr_common/lib/\libc.a(lib_a-memcmp.o)
 P              0xfff15410        0x0 ./gr_common/lib/\libc.a(lib_a-putc.o)
 P              0xfff15410        0x0 ./gr_common/lib/\libc.a(lib_a-realloc.o)
 P              0xfff15410        0x0 ./gr_common/lib/\libc.a(lib_a-signal.o)
 P              0xfff15410        0x0 ./gr_common/lib/\libc.a(lib_a-signalr.o)
 P              0xfff15410        0x0 ./gr_common/lib/\libc.a(lib_a-strdup.o)
 P              0xfff15410        0x0 ./gr_common/lib/\libc.a(lib_a-strdup_r.o)
 P              0xfff15410        0x0 ./gr_common/lib/\libc.a(lib_a-strerror.o)
 P              0xfff15410        0x0 ./gr_common/lib/\libc.a(lib_a-strncpy.o)
 P              0xfff15410        0x0 ./gr_common/lib/\libc.a(lib_a-u_strerr.o)
 P              0xfff15410        0x0 ./gr_common/lib/\libc.a(lib_a-wbuf.o)
 P              0xfff15410        0x0 ./gr_common/lib/\libc.a(lib_a-wsetup.o)
 P              0xfff15410        0x0 ./gr_common/lib/\libc.a(lib_a-fflush.o)
 P              0xfff15410        0x0 ./gr_common/lib/\libc.a(lib_a-findfp.o)
 P              0xfff15410        0x0 ./gr_common/lib/\libc.a(lib_a-fwalk.o)
 P              0xfff15410        0x0 ./gr_common/lib/\libc.a(lib_a-makebuf.o)
 P              0xfff15410        0x0 ./gr_common/lib/\libc.a(lib_a-stdio.o)
 P              0xfff15410        0x0 ./gr_common/lib/\libc.a(lib_a-writer.o)
 P              0xfff15410        0x0 ./gr_common/lib/\libc.a(lib_a-closer.o)
 P              0xfff15410        0x0 ./gr_common/lib/\libc.a(lib_a-fclose.o)
 P              0xfff15410        0x0 ./gr_common/lib/\libc.a(lib_a-fstatr.o)
 P              0xfff15410        0x0 ./gr_common/lib/\libc.a(lib_a-isattyr.o)
 P              0xfff15410        0x0 ./gr_common/lib/\libc.a(lib_a-lseekr.o)
 P              0xfff15410        0x0 ./gr_common/lib/\libc.a(lib_a-readr.o)
 P              0xfff15410        0xe ./gr_common/lib/\libsim.a(exit.o)
                0xfff15410                _exit
 P              0xfff1541e        0x6 ./gr_common/lib/\libsim.a(getpid.o)
                0xfff1541e                _getpid
                0xfff1541e                getpid
 P              0xfff15424        0x6 ./gr_common/lib/\libsim.a(kill.o)
                0xfff15424                kill
                0xfff15424                _kill
 *fill*         0xfff1542a        0x6 00
 P              0xfff15430      0x280 ./gr_common/lib/\libgcc.a(unwind-sjlj.o)
                0xfff15522                _Unwind_SjLj_Register
                0xfff15533                _Unwind_SjLj_Unregister
                0xfff1553e                _Unwind_GetGR
                0xfff15546                _Unwind_GetCFA
                0xfff1554e                _Unwind_SetGR
                0xfff15556                _Unwind_GetIP
                0xfff1555e                _Unwind_GetIPInfo
                0xfff1556b                _Unwind_SetIP
                0xfff15573                _Unwind_GetLanguageSpecificData
                0xfff15579                _Unwind_GetRegionStart
                0xfff1557c                _Unwind_FindEnclosingFunction
                0xfff1557f                _Unwind_GetDataRelBase
                0xfff15582                _Unwind_GetTextRelBase
                0xfff15585                _Unwind_SjLj_RaiseException
                0xfff155f8                _Unwind_SjLj_ForcedUnwind
                0xfff15617                _Unwind_SjLj_Resume
                0xfff15641                _Unwind_SjLj_Resume_or_Rethrow
                0xfff1566a                _Unwind_DeleteException
                0xfff15677                _Unwind_Backtrace
                0xfff156b0                etext = .

.rvectors       0xfff156b0      0x400
                0xfff156b0                _rvectors_start = .
 *(.rvectors)
 .rvectors      0xfff156b0      0x400 ./gr_common/intvect.o
                0xfff156b0                Relocatable_Vectors
                0xfff15ab0                _rvectors_end = .

.init           0xfff15ab0        0x8
 *(.init)
                0xfff15ab0                __preinit_array_start = .
 *(.preinit_array)
                0xfff15ab0                __preinit_array_end = .
                0xfff15ab0                __init_array_start = ((. + 0x3) & 0xfffffffc)
 *(.init_array)
 .init_array    0xfff15ab0        0x4 ./gr_sketch.o
 .init_array    0xfff15ab4        0x4 ./gr_common/lib/libstdc++.a(system_error.o)
 *(SORT(.init_array.*))
                0xfff15ab8                __init_array_end = .
                0xfff15ab8                __fini_array_start = .
 *(.fini_array)
 *(SORT(.fini_array.*))
                0xfff15ab8                __fini_array_end = .

.fini
 *(.fini)

.got
 *(.got)
 *(.got.plt)

.rodata         0xfff15ab8     0x306c
 *(.rodata)
 *(.rodata.*)
 .rodata.str1.1
                0xfff15ab8       0x36 ./gr_sketch.o
                                 0x37 (size before relaxing)
 *fill*         0xfff15aee        0x2 00
 .rodata._global_impure_ptr
                0xfff15af0        0x4 ./gr_common/lib/libc.a(lib_a-impure.o)
                0xfff15af0                _global_impure_ptr
 .rodata.str1.1
                0xfff15af4        0x2 ./gr_common/lib/libc.a(lib_a-impure.o)
 .rodata.str1.1
                0xfff15af6       0x32 ./gr_common/lib/libc.a(lib_a-svfprintf.o)
                                 0x34 (size before relaxing)
 .rodata._svfprintf_r
                0xfff15b28      0x164 ./gr_common/lib/libc.a(lib_a-svfprintf.o)
 .rodata.blanks.3889
                0xfff15c8c       0x10 ./gr_common/lib/libc.a(lib_a-svfprintf.o)
 .rodata.zeroes.3890
                0xfff15c9c       0x10 ./gr_common/lib/libc.a(lib_a-svfprintf.o)
 .rodata.str1.1
                0xfff15cac        0xd ./gr_common/lib/libc.a(lib_a-dtoa.o)
                                  0xf (size before relaxing)
 .rodata.str1.1
                0xfff15cb9        0x6 ./gr_common/lib/libc.a(lib_a-locale.o)
                                  0xb (size before relaxing)
 *fill*         0xfff15cbf        0x1 00
 .rodata.__mprec_tinytens
                0xfff15cc0        0x8 ./gr_common/lib/libc.a(lib_a-mprec.o)
                0xfff15cc0                __mprec_tinytens
 .rodata.__mprec_bigtens
                0xfff15cc8        0x8 ./gr_common/lib/libc.a(lib_a-mprec.o)
                0xfff15cc8                __mprec_bigtens
 .rodata.__mprec_tens
                0xfff15cd0       0x64 ./gr_common/lib/libc.a(lib_a-mprec.o)
                0xfff15cd0                __mprec_tens
 .rodata.p05.2408
                0xfff15d34        0xc ./gr_common/lib/libc.a(lib_a-mprec.o)
 .rodata.str1.1
                0x00000000       0x22 ./gr_common/lib/libc.a(lib_a-svfiprintf.o)
 .rodata.blanks.3833
                0xfff15d40       0x10 ./gr_common/lib/libc.a(lib_a-svfiprintf.o)
 .rodata.zeroes.3834
                0xfff15d50       0x10 ./gr_common/lib/libc.a(lib_a-svfiprintf.o)
 .rodata.str1.1
                0xfff15d60        0x6 ./gr_common/lib/libm.a(lib_a-wf_fmod.o)
 *fill*         0xfff15d66        0x2 00
 .rodata.Zero   0xfff15d68        0x8 ./gr_common/lib/libm.a(lib_a-ef_fmod.o)
 .rodata.str1.1
                0xfff15d70      0x147 ./gr_common/lib/libstdc++.a(string-inst.o)
 .rodata._ZNSs4_Rep11_S_terminalE
                0xfff15eb7        0x1 ./gr_common/lib/libstdc++.a(string-inst.o)
                0xfff15eb7                std::string::_Rep::_S_terminal
 .rodata._ZNSs4_Rep11_S_max_sizeE
                0xfff15eb8        0x4 ./gr_common/lib/libstdc++.a(string-inst.o)
                0xfff15eb8                std::string::_Rep::_S_max_size
 .rodata._ZNSs4nposE
                0xfff15ebc        0x4 ./gr_common/lib/libstdc++.a(string-inst.o)
                0xfff15ebc                std::string::npos
 .rodata._ZL28read_encoded_value_with_basehjPKhPj
                0xfff15ec0       0x34 ./gr_common/lib/libstdc++.a(eh_personality.o)
 .rodata.str1.1
                0xfff15ef4       0x22 ./gr_common/lib/libstdc++.a(eh_exception.o)
 .rodata._ZTSSt9exception
                0xfff15f16        0xd ./gr_common/lib/libstdc++.a(eh_exception.o)
                0xfff15f16                typeinfo name for std::exception
 *fill*         0xfff15f23        0x1 00
 .rodata._ZTISt9exception
                0xfff15f24        0x8 ./gr_common/lib/libstdc++.a(eh_exception.o)
                0xfff15f24                typeinfo for std::exception
 .rodata._ZTSSt13bad_exception
                0xfff15f2c       0x12 ./gr_common/lib/libstdc++.a(eh_exception.o)
                0xfff15f2c                typeinfo name for std::bad_exception
 *fill*         0xfff15f3e        0x2 00
 .rodata._ZTISt13bad_exception
                0xfff15f40        0xc ./gr_common/lib/libstdc++.a(eh_exception.o)
                0xfff15f40                typeinfo for std::bad_exception
 .rodata._ZTSN10__cxxabiv115__forced_unwindE
                0xfff15f4c       0x20 ./gr_common/lib/libstdc++.a(eh_exception.o)
                0xfff15f4c                typeinfo name for __cxxabiv1::__forced_unwind
 .rodata._ZTIN10__cxxabiv115__forced_unwindE
                0xfff15f6c        0x8 ./gr_common/lib/libstdc++.a(eh_exception.o)
                0xfff15f6c                typeinfo for __cxxabiv1::__forced_unwind
 .rodata._ZTSN10__cxxabiv119__foreign_exceptionE
                0xfff15f74       0x24 ./gr_common/lib/libstdc++.a(eh_exception.o)
                0xfff15f74                typeinfo name for __cxxabiv1::__foreign_exception
 .rodata._ZTIN10__cxxabiv119__foreign_exceptionE
                0xfff15f98        0x8 ./gr_common/lib/libstdc++.a(eh_exception.o)
                0xfff15f98                typeinfo for __cxxabiv1::__foreign_exception
 .rodata._ZTVSt9exception
                0xfff15fa0       0x14 ./gr_common/lib/libstdc++.a(eh_exception.o)
                0xfff15fa0                vtable for std::exception
 .rodata._ZTVSt13bad_exception
                0xfff15fb4       0x14 ./gr_common/lib/libstdc++.a(eh_exception.o)
                0xfff15fb4                vtable for std::bad_exception
 .rodata._ZTVN10__cxxabiv115__forced_unwindE
                0xfff15fc8       0x14 ./gr_common/lib/libstdc++.a(eh_exception.o)
                0xfff15fc8                vtable for __cxxabiv1::__forced_unwind
 .rodata._ZTVN10__cxxabiv119__foreign_exceptionE
                0xfff15fdc       0x14 ./gr_common/lib/libstdc++.a(eh_exception.o)
                0xfff15fdc                vtable for __cxxabiv1::__foreign_exception
 .rodata.str1.1
                0xfff15ff0       0x1c ./gr_common/lib/libstdc++.a(pure.o)
 .rodata.cst4   0xfff1600c        0x8 ./gr_common/lib/libstdc++.a(eh_alloc.o)
 .rodata.str1.1
                0xfff16014       0x12 ./gr_common/lib/libstdc++.a(functexcept.o)
 .rodata._ZTSSt17bad_function_call
                0xfff16026       0x16 ./gr_common/lib/libstdc++.a(functional.o)
                0xfff16026                typeinfo name for std::bad_function_call
 .rodata._ZTISt17bad_function_call
                0xfff1603c        0xc ./gr_common/lib/libstdc++.a(functional.o)
                0xfff1603c                typeinfo for std::bad_function_call
 .rodata._ZTVSt17bad_function_call
                0xfff16048       0x14 ./gr_common/lib/libstdc++.a(functional.o)
                0xfff16048                vtable for std::bad_function_call
 .rodata._ZTSNSt8ios_base7failureE
                0xfff1605c       0x16 ./gr_common/lib/libstdc++.a(ios_failure.o)
                0xfff1605c                typeinfo name for std::ios_base::failure
 *fill*         0xfff16072        0x2 00
 .rodata._ZTINSt8ios_base7failureE
                0xfff16074        0xc ./gr_common/lib/libstdc++.a(ios_failure.o)
                0xfff16074                typeinfo for std::ios_base::failure
 .rodata._ZTVNSt8ios_base7failureE
                0xfff16080       0x14 ./gr_common/lib/libstdc++.a(ios_failure.o)
                0xfff16080                vtable for std::ios_base::failure
 .rodata._ZTSSt11logic_error
                0xfff16094       0x10 ./gr_common/lib/libstdc++.a(stdexcept.o)
                0xfff16094                typeinfo name for std::logic_error
 .rodata._ZTISt11logic_error
                0xfff160a4        0xc ./gr_common/lib/libstdc++.a(stdexcept.o)
                0xfff160a4                typeinfo for std::logic_error
 .rodata._ZTSSt12domain_error
                0xfff160b0       0x11 ./gr_common/lib/libstdc++.a(stdexcept.o)
                0xfff160b0                typeinfo name for std::domain_error
 *fill*         0xfff160c1        0x3 00
 .rodata._ZTISt12domain_error
                0xfff160c4        0xc ./gr_common/lib/libstdc++.a(stdexcept.o)
                0xfff160c4                typeinfo for std::domain_error
 .rodata._ZTSSt16invalid_argument
                0xfff160d0       0x15 ./gr_common/lib/libstdc++.a(stdexcept.o)
                0xfff160d0                typeinfo name for std::invalid_argument
 *fill*         0xfff160e5        0x3 00
 .rodata._ZTISt16invalid_argument
                0xfff160e8        0xc ./gr_common/lib/libstdc++.a(stdexcept.o)
                0xfff160e8                typeinfo for std::invalid_argument
 .rodata._ZTSSt12length_error
                0xfff160f4       0x11 ./gr_common/lib/libstdc++.a(stdexcept.o)
                0xfff160f4                typeinfo name for std::length_error
 *fill*         0xfff16105        0x3 00
 .rodata._ZTISt12length_error
                0xfff16108        0xc ./gr_common/lib/libstdc++.a(stdexcept.o)
                0xfff16108                typeinfo for std::length_error
 .rodata._ZTSSt12out_of_range
                0xfff16114       0x11 ./gr_common/lib/libstdc++.a(stdexcept.o)
                0xfff16114                typeinfo name for std::out_of_range
 *fill*         0xfff16125        0x3 00
 .rodata._ZTISt12out_of_range
                0xfff16128        0xc ./gr_common/lib/libstdc++.a(stdexcept.o)
                0xfff16128                typeinfo for std::out_of_range
 .rodata._ZTSSt13runtime_error
                0xfff16134       0x12 ./gr_common/lib/libstdc++.a(stdexcept.o)
                0xfff16134                typeinfo name for std::runtime_error
 *fill*         0xfff16146        0x2 00
 .rodata._ZTISt13runtime_error
                0xfff16148        0xc ./gr_common/lib/libstdc++.a(stdexcept.o)
                0xfff16148                typeinfo for std::runtime_error
 .rodata._ZTSSt11range_error
                0xfff16154       0x10 ./gr_common/lib/libstdc++.a(stdexcept.o)
                0xfff16154                typeinfo name for std::range_error
 .rodata._ZTISt11range_error
                0xfff16164        0xc ./gr_common/lib/libstdc++.a(stdexcept.o)
                0xfff16164                typeinfo for std::range_error
 .rodata._ZTSSt14overflow_error
                0xfff16170       0x13 ./gr_common/lib/libstdc++.a(stdexcept.o)
                0xfff16170                typeinfo name for std::overflow_error
 *fill*         0xfff16183        0x1 00
 .rodata._ZTISt14overflow_error
                0xfff16184        0xc ./gr_common/lib/libstdc++.a(stdexcept.o)
                0xfff16184                typeinfo for std::overflow_error
 .rodata._ZTSSt15underflow_error
                0xfff16190       0x14 ./gr_common/lib/libstdc++.a(stdexcept.o)
                0xfff16190                typeinfo name for std::underflow_error
 .rodata._ZTISt15underflow_error
                0xfff161a4        0xc ./gr_common/lib/libstdc++.a(stdexcept.o)
                0xfff161a4                typeinfo for std::underflow_error
 .rodata._ZTVSt11logic_error
                0xfff161b0       0x14 ./gr_common/lib/libstdc++.a(stdexcept.o)
                0xfff161b0                vtable for std::logic_error
 .rodata._ZTVSt12domain_error
                0xfff161c4       0x14 ./gr_common/lib/libstdc++.a(stdexcept.o)
                0xfff161c4                vtable for std::domain_error
 .rodata._ZTVSt16invalid_argument
                0xfff161d8       0x14 ./gr_common/lib/libstdc++.a(stdexcept.o)
                0xfff161d8                vtable for std::invalid_argument
 .rodata._ZTVSt12length_error
                0xfff161ec       0x14 ./gr_common/lib/libstdc++.a(stdexcept.o)
                0xfff161ec                vtable for std::length_error
 .rodata._ZTVSt12out_of_range
                0xfff16200       0x14 ./gr_common/lib/libstdc++.a(stdexcept.o)
                0xfff16200                vtable for std::out_of_range
 .rodata._ZTVSt13runtime_error
                0xfff16214       0x14 ./gr_common/lib/libstdc++.a(stdexcept.o)
                0xfff16214                vtable for std::runtime_error
 .rodata._ZTVSt11range_error
                0xfff16228       0x14 ./gr_common/lib/libstdc++.a(stdexcept.o)
                0xfff16228                vtable for std::range_error
 .rodata._ZTVSt14overflow_error
                0xfff1623c       0x14 ./gr_common/lib/libstdc++.a(stdexcept.o)
                0xfff1623c                vtable for std::overflow_error
 .rodata._ZTVSt15underflow_error
                0xfff16250       0x14 ./gr_common/lib/libstdc++.a(stdexcept.o)
                0xfff16250                vtable for std::underflow_error
 .rodata.str1.1
                0xfff16264        0x8 ./gr_common/lib/libstdc++.a(system_error.o)
                                  0xf (size before relaxing)
 .rodata._ZTSSt14error_category
                0xfff1626c       0x13 ./gr_common/lib/libstdc++.a(system_error.o)
                0xfff1626c                typeinfo name for std::error_category
 *fill*         0xfff1627f        0x1 00
 .rodata._ZTISt14error_category
                0xfff16280        0x8 ./gr_common/lib/libstdc++.a(system_error.o)
                0xfff16280                typeinfo for std::error_category
 .rodata._ZTSSt12system_error
                0xfff16288       0x11 ./gr_common/lib/libstdc++.a(system_error.o)
                0xfff16288                typeinfo name for std::system_error
 *fill*         0xfff16299        0x3 00
 .rodata._ZTISt12system_error
                0xfff1629c        0xc ./gr_common/lib/libstdc++.a(system_error.o)
                0xfff1629c                typeinfo for std::system_error
 .rodata._ZTVSt14error_category
                0xfff162a8       0x24 ./gr_common/lib/libstdc++.a(system_error.o)
                0xfff162a8                vtable for std::error_category
 .rodata._ZTVSt12system_error
                0xfff162cc       0x14 ./gr_common/lib/libstdc++.a(system_error.o)
                0xfff162cc                vtable for std::system_error
 .rodata._ZTVN12_GLOBAL__N_122generic_error_categoryE
                0xfff162e0       0x24 ./gr_common/lib/libstdc++.a(system_error.o)
 .rodata._ZTVN12_GLOBAL__N_121system_error_categoryE
                0xfff16304       0x24 ./gr_common/lib/libstdc++.a(system_error.o)
 .rodata._ZTIN12_GLOBAL__N_122generic_error_categoryE
                0xfff16328        0xc ./gr_common/lib/libstdc++.a(system_error.o)
 .rodata._ZTIN12_GLOBAL__N_121system_error_categoryE
                0xfff16334        0xc ./gr_common/lib/libstdc++.a(system_error.o)
 .rodata._ZTSN12_GLOBAL__N_122generic_error_categoryE
                0xfff16340       0x2a ./gr_common/lib/libstdc++.a(system_error.o)
 .rodata._ZTSN12_GLOBAL__N_121system_error_categoryE
                0xfff1636a       0x29 ./gr_common/lib/libstdc++.a(system_error.o)
 .rodata.str1.1
                0xfff16393        0xc ./gr_common/lib/libstdc++.a(regex.o)
 .rodata._ZTSSt11regex_error
                0xfff1639f       0x10 ./gr_common/lib/libstdc++.a(regex.o)
                0xfff1639f                typeinfo name for std::regex_error
 *fill*         0xfff163af        0x1 00
 .rodata._ZTISt11regex_error
                0xfff163b0        0xc ./gr_common/lib/libstdc++.a(regex.o)
                0xfff163b0                typeinfo for std::regex_error
 .rodata._ZTVSt11regex_error
                0xfff163bc       0x14 ./gr_common/lib/libstdc++.a(regex.o)
                0xfff163bc                vtable for std::regex_error
 .rodata.str1.1
                0xfff163d0       0x6b ./gr_common/lib/libstdc++.a(future.o)
 .rodata._ZTSSt12future_error
                0xfff1643b       0x11 ./gr_common/lib/libstdc++.a(future.o)
                0xfff1643b                typeinfo name for std::future_error
 .rodata._ZTISt12future_error
                0xfff1644c        0xc ./gr_common/lib/libstdc++.a(future.o)
                0xfff1644c                typeinfo for std::future_error
 .rodata._ZTVSt12future_error
                0xfff16458       0x14 ./gr_common/lib/libstdc++.a(future.o)
                0xfff16458                vtable for std::future_error
 .rodata._ZTVN12_GLOBAL__N_121future_error_categoryE
                0xfff1646c       0x24 ./gr_common/lib/libstdc++.a(future.o)
 .rodata._ZTIN12_GLOBAL__N_121future_error_categoryE
                0xfff16490        0xc ./gr_common/lib/libstdc++.a(future.o)
 .rodata._ZTSN12_GLOBAL__N_121future_error_categoryE
                0xfff1649c       0x29 ./gr_common/lib/libstdc++.a(future.o)
 .rodata.str1.1
                0xfff164c5       0x10 ./gr_common/lib/libstdc++.a(bad_typeid.o)
 .rodata._ZTSSt10bad_typeid
                0xfff164d5        0xf ./gr_common/lib/libstdc++.a(bad_typeid.o)
                0xfff164d5                typeinfo name for std::bad_typeid
 .rodata._ZTISt10bad_typeid
                0xfff164e4        0xc ./gr_common/lib/libstdc++.a(bad_typeid.o)
                0xfff164e4                typeinfo for std::bad_typeid
 .rodata._ZTVSt10bad_typeid
                0xfff164f0       0x14 ./gr_common/lib/libstdc++.a(bad_typeid.o)
                0xfff164f0                vtable for std::bad_typeid
 .rodata.str1.1
                0xfff16504        0xf ./gr_common/lib/libstdc++.a(bad_alloc.o)
 .rodata._ZTSSt9bad_alloc
                0xfff16513        0xd ./gr_common/lib/libstdc++.a(bad_alloc.o)
                0xfff16513                typeinfo name for std::bad_alloc
 .rodata._ZTISt9bad_alloc
                0xfff16520        0xc ./gr_common/lib/libstdc++.a(bad_alloc.o)
                0xfff16520                typeinfo for std::bad_alloc
 .rodata._ZTVSt9bad_alloc
                0xfff1652c       0x14 ./gr_common/lib/libstdc++.a(bad_alloc.o)
                0xfff1652c                vtable for std::bad_alloc
 .rodata._ZTSN10__cxxabiv120__si_class_type_infoE
                0xfff16540       0x25 ./gr_common/lib/libstdc++.a(si_class_type_info.o)
                0xfff16540                typeinfo name for __cxxabiv1::__si_class_type_info
 *fill*         0xfff16565        0x3 00
 .rodata._ZTIN10__cxxabiv120__si_class_type_infoE
                0xfff16568        0xc ./gr_common/lib/libstdc++.a(si_class_type_info.o)
                0xfff16568                typeinfo for __cxxabiv1::__si_class_type_info
 .rodata._ZTVN10__cxxabiv120__si_class_type_infoE
                0xfff16574       0x2c ./gr_common/lib/libstdc++.a(si_class_type_info.o)
                0xfff16574                vtable for __cxxabiv1::__si_class_type_info
 .rodata._ZSt7nothrow
                0xfff165a0        0x1 ./gr_common/lib/libstdc++.a(new_handler.o)
                0xfff165a0                std::nothrow
 .rodata.str1.1
                0xfff165a1        0xe ./gr_common/lib/libstdc++.a(bad_cast.o)
 .rodata._ZTSSt8bad_cast
                0xfff165af        0xc ./gr_common/lib/libstdc++.a(bad_cast.o)
                0xfff165af                typeinfo name for std::bad_cast
 *fill*         0xfff165bb        0x1 00
 .rodata._ZTISt8bad_cast
                0xfff165bc        0xc ./gr_common/lib/libstdc++.a(bad_cast.o)
                0xfff165bc                typeinfo for std::bad_cast
 .rodata._ZTVSt8bad_cast
                0xfff165c8       0x14 ./gr_common/lib/libstdc++.a(bad_cast.o)
                0xfff165c8                vtable for std::bad_cast
 .rodata._ZTSN10__cxxabiv117__class_type_infoE
                0xfff165dc       0x22 ./gr_common/lib/libstdc++.a(class_type_info.o)
                0xfff165dc                typeinfo name for __cxxabiv1::__class_type_info
 *fill*         0xfff165fe        0x2 00
 .rodata._ZTIN10__cxxabiv117__class_type_infoE
                0xfff16600        0xc ./gr_common/lib/libstdc++.a(class_type_info.o)
                0xfff16600                typeinfo for __cxxabiv1::__class_type_info
 .rodata._ZTVN10__cxxabiv117__class_type_infoE
                0xfff1660c       0x2c ./gr_common/lib/libstdc++.a(class_type_info.o)
                0xfff1660c                vtable for __cxxabiv1::__class_type_info
 .rodata._ZTSSt9type_info
                0xfff16638        0xd ./gr_common/lib/libstdc++.a(tinfo.o)
                0xfff16638                typeinfo name for std::type_info
 *fill*         0xfff16645        0x3 00
 .rodata._ZTISt9type_info
                0xfff16648        0x8 ./gr_common/lib/libstdc++.a(tinfo.o)
                0xfff16648                typeinfo for std::type_info
 .rodata._ZTVSt9type_info
                0xfff16650       0x20 ./gr_common/lib/libstdc++.a(tinfo.o)
                0xfff16650                vtable for std::type_info
 .rodata.str1.1
                0xfff16670       0x8c ./gr_common/lib/libstdc++.a(vterminate.o)
 .rodata.str1.1
                0xfff166fc      0x567 ./gr_common/lib/libstdc++.a(cp-demangle.o)
                                0x61c (size before relaxing)
 .rodata._ZTSN9__gnu_cxx20recursive_init_errorE
                0xfff16c63       0x23 ./gr_common/lib/libstdc++.a(guard_error.o)
                0xfff16c63                typeinfo name for __gnu_cxx::recursive_init_error
 *fill*         0xfff16c86        0x2 00
 .rodata._ZTIN9__gnu_cxx20recursive_init_errorE
                0xfff16c88        0xc ./gr_common/lib/libstdc++.a(guard_error.o)
                0xfff16c88                typeinfo for __gnu_cxx::recursive_init_error
 .rodata._ZTVN9__gnu_cxx20recursive_init_errorE
                0xfff16c94       0x14 ./gr_common/lib/libstdc++.a(guard_error.o)
                0xfff16c94                vtable for __gnu_cxx::recursive_init_error
 .rodata.str1.1
                0xfff16ca8        0x5 ./gr_common/lib/libtkdnhal.a(tkdn_ether.o)
 *fill*         0xfff16cad        0x3 00
 .rodata.cst4   0xfff16cb0        0x4 ./gr_common/lib/libtkdnhal.a(tkdn_ether.o)
 .rodata.str1.1
                0xfff16cb4       0x20 ./gr_sakura_ethernet/libethernet.a(libethernet.o)
 .rodata.str1.1
                0xfff16cd4       0x72 ./gr_sakura_ethernet/libtkdnip.a(tkdnip.o)
                                 0x7e (size before relaxing)
 .rodata.str1.1
                0xfff16d46       0x4e ./gr_sakura_ethernet/libtkdnip.a(arp.o)
 .rodata.str1.1
                0xfff16d94       0x39 ./gr_sakura_ethernet/libtkdnip.a(icmp.o)
 .rodata.str1.1
                0xfff16dcd       0x59 ./gr_sakura_ethernet/libtkdnip.a(ethframe.o)
 .rodata.str1.1
                0x00000000       0x36 ./gr_sakura_ethernet/libtkdnip.a(ip.o)
 .rodata._ctype_
                0xfff16e26      0x101 ./gr_common/lib/\libc.a(lib_a-ctype_.o)
                0xfff16e26                _ctype_
 .rodata.str1.1
                0xfff16f27      0x5d8 ./gr_common/lib/\libc.a(lib_a-strerror.o)
                                0x5d9 (size before relaxing)
 *fill*         0xfff174ff        0x1 00
 .rodata._strerror_r
                0xfff17500      0x23c ./gr_common/lib/\libc.a(lib_a-strerror.o)
 *(C_1)
 *(C_2)
 *(C)
 C              0xfff1773c      0x100 ./gr_common/lib/libgcc.a(_clz.o)
                0xfff1773c                __clz_tab
 C              0xfff1783c      0xe30 ./gr_common/lib/libstdc++.a(cp-demangle.o)
 C              0xfff1866c       0x84 ./gr_common/lib/libtkdnhal.a(tkdn_gpio.o)
                0xfff1866c                SFP_PINMAP
                0xfff18680                GPIO_PINMAP
 C              0xfff186f0       0x78 ./gr_common/lib/libtkdnhal.a(tkdn_pwm.o)
 C              0xfff18768       0x20 ./gr_common/lib/libtkdnhal.a(tkdn_adc.o)
 C              0xfff18788        0x8 ./gr_common/lib/libtkdnhal.a(usb_cdc.o)
 C              0xfff18790       0x2c ./gr_common/lib/libtkdnhal.a(usb_core.o)
                0xfff187b8                gStringDescriptorLanguageIDsData
 C              0xfff187bc       0xc4 ./gr_common/lib/libtkdnhal.a(usbdescriptors.o)
                0xfff187bc                gStringDescriptorSerialNum
                0xfff187c4                gStringDescriptorProduct
                0xfff187cc                gStringDescriptorManufacturer
                0xfff187d4                gConfigurationDescriptor
                0xfff187dc                gDeviceDescriptor
 C              0xfff18880       0x20 ./gr_common/lib/libtkdnhal.a(tkdn_interrupt.o)
 C              0xfff188a0       0xf0 ./gr_common/lib/libtkdnhal.a(tkdn_servo.o)
 C              0xfff18990       0x60 ./gr_sakura_ethernet/libethernet.a(libethernet.o)
 C              0xfff189f0        0x8 ./gr_sakura_ethernet/libtkdnip.a(arp.o)
 C              0xfff189f8      0x12c ./gr_sakura_ethernet/libtkdnip.a(dhcpc.o)
                0xfff18b24                _erodata = .

.fvectors       0xfff18b24       0x30
 *.o(.fvectors)
 .fvectors      0xfff18b24       0x30 ./gr_common/intvect.o
                0xfff18b24                Fixed_Vectors

.eh_frame_hdr
 *(.eh_frame_hdr)

.eh_frame
 *(.eh_frame)

.jcr
 *(.jcr)

.tors           0xfff18b54        0x0
                0xfff18b54                __CTOR_LIST__ = .
                0xfff18b54                ___ctors = .
 *(.ctors)
                0xfff18b54                ___ctors_end = .
                0xfff18b54                __CTOR_END__ = .
                0xfff18b54                __DTOR_LIST__ = .
                0xfff18b54                ___dtors = .
 *(.dtors)
                0xfff18b54                ___dtors_end = .
                0xfff18b54                __DTOR_END__ = .
                0xfff18b54                _mdata = .

.istack         0x00020000        0x0
                0x00020000                _istack = .

.ustack         0x0001ff00        0x0
                0x0001ff00                _ustack = .

.data           0x00001000      0x9cc load address 0xfff18b54
                0x00001000                _data = .
 *(.data)
 .data          0x00001000        0x4 ./gr_common/gstart.o
                0x00001000                __dso_handle
 *(.data.*)
 .data._impure_ptr
                0x00001004        0x4 ./gr_common/lib/libc.a(lib_a-impure.o)
                0x00001004                _impure_ptr
 .data.impure_data
                0x00001008      0x424 ./gr_common/lib/libc.a(lib_a-impure.o)
 .data.__mb_cur_max
                0x0000142c        0x4 ./gr_common/lib/libc.a(lib_a-locale.o)
                0x0000142c                __mb_cur_max
 .data.lc_ctype_charset
                0x00001430       0x20 ./gr_common/lib/libc.a(lib_a-locale.o)
 .data.lc_message_charset
                0x00001450       0x20 ./gr_common/lib/libc.a(lib_a-locale.o)
 .data.lconv    0x00001470       0x38 ./gr_common/lib/libc.a(lib_a-locale.o)
 .data.__malloc_sbrk_base
                0x000014a8        0x4 ./gr_common/lib/libc.a(lib_a-mallocr.o)
                0x000014a8                __malloc_sbrk_base
 .data.__malloc_trim_threshold
                0x000014ac        0x4 ./gr_common/lib/libc.a(lib_a-mallocr.o)
                0x000014ac                __malloc_trim_threshold
 .data.__malloc_av_
                0x000014b0      0x408 ./gr_common/lib/libc.a(lib_a-mallocr.o)
                0x000014b0                __malloc_av_
 .data.__fdlib_version
                0x000018b8        0x4 ./gr_common/lib/libm.a(lib_a-s_lib_ver.o)
                0x000018b8                __fdlib_version
 .data._ZN10__cxxabiv120__unexpected_handlerE
                0x000018bc        0x4 ./gr_common/lib/libstdc++.a(eh_unex_handler.o)
                0x000018bc                __cxxabiv1::__unexpected_handler
 .data._ZN10__cxxabiv119__terminate_handlerE
                0x000018c0        0x4 ./gr_common/lib/libstdc++.a(eh_term_handler.o)
                0x000018c0                __cxxabiv1::__terminate_handler
 .data.__ctype_ptr__
                0x000018c4        0x4 ./gr_common/lib/\libc.a(lib_a-ctype_.o)
                0x000018c4                __ctype_ptr__
 *(D)
 D              0x000018c8       0x24 ./gr_sketch.o
                0x000018c8                dstip
                0x000018cc                mac
                0x000018d4                ledpat
 D              0x000018ec        0x4 ./gr_common/lowlevel.o
 D              0x000018f0       0x6c ./gr_common/lib/libtkdnhal.a(tkdn_ether.o)
                0x000018f0                le0
 D              0x0000195c        0x4 ./gr_common/lib/libtkdnhal.a(tkdn_pwm.o)
 D              0x00001960        0xc ./gr_common/lib/libtkdnhal.a(tkdn_tone.o)
 D              0x0000196c       0x30 ./gr_common/lib/libtkdnhal.a(usb_core.o)
 D              0x0000199c       0x24 ./gr_common/lib/libtkdnhal.a(usb_hal.o)
 D              0x000019c0        0x8 ./gr_common/lib/libtkdnhal.a(tkdn_interrupt.o)
                0x000019c0                USBI1_handler
                0x000019c4                USBI0_handler
 D              0x000019c8        0x4 ./gr_sakura_ethernet/libtkdnip.a(dhcpc.o)
                0x000019c8                g_dhcp_id
 *(D_1)
 D_1            0x000019cc        0x0 ./gr_common/gstart.o
 D_1            0x000019cc        0x0 ./gr_sketch.o
 D_1            0x000019cc        0x0 ./gr_common/intvect.o
 D_1            0x000019cc        0x0 ./gr_common/lowlevel.o
 D_1            0x000019cc        0x0 ./gr_common/lib/libc.a(lib_a-errno.o)
 D_1            0x000019cc        0x0 ./gr_common/lib/libc.a(lib_a-impure.o)
 D_1            0x000019cc        0x0 ./gr_common/lib/libc.a(lib_a-sprintf.o)
 D_1            0x000019cc        0x0 ./gr_common/lib/libc.a(lib_a-svfprintf.o)
 D_1            0x000019cc        0x0 ./gr_common/lib/libc.a(lib_a-dtoa.o)
 D_1            0x000019cc        0x0 ./gr_common/lib/libc.a(lib_a-locale.o)
 D_1            0x000019cc        0x0 ./gr_common/lib/libc.a(lib_a-mallocr.o)
 D_1            0x000019cc        0x0 ./gr_common/lib/libc.a(lib_a-memchr.o)
 D_1            0x000019cc        0x0 ./gr_common/lib/libc.a(lib_a-memcpy.o)
 D_1            0x000019cc        0x0 ./gr_common/lib/libc.a(lib_a-mlock.o)
 D_1            0x000019cc        0x0 ./gr_common/lib/libc.a(lib_a-mprec.o)
 D_1            0x000019cc        0x0 ./gr_common/lib/libc.a(lib_a-sbrkr.o)
 D_1            0x000019cc        0x0 ./gr_common/lib/libc.a(lib_a-sf_fpclassify.o)
 D_1            0x000019cc        0x0 ./gr_common/lib/libc.a(lib_a-strcmp.o)
 D_1            0x000019cc        0x0 ./gr_common/lib/libc.a(lib_a-strlen.o)
 D_1            0x000019cc        0x0 ./gr_common/lib/libc.a(lib_a-svfiprintf.o)
 D_1            0x000019cc        0x0 ./gr_common/lib/libc.a(lib_a-callocr.o)
 D_1            0x000019cc        0x0 ./gr_common/lib/libc.a(lib_a-freer.o)
 D_1            0x000019cc        0x0 ./gr_common/lib/libc.a(lib_a-memmove.o)
 D_1            0x000019cc        0x0 ./gr_common/lib/libc.a(lib_a-memset.o)
 D_1            0x000019cc        0x0 ./gr_common/lib/libc.a(lib_a-reallocr.o)
 D_1            0x000019cc        0x0 ./gr_common/lib/libc.a(lib_a-reent.o)
 D_1            0x000019cc        0x0 ./gr_common/lib/libgcc.a(_udivdi3.o)
 D_1            0x000019cc        0x0 ./gr_common/lib/libgcc.a(_umoddi3.o)
 D_1            0x000019cc        0x0 ./gr_common/lib/libgcc.a(_clz.o)
 D_1            0x000019cc        0x0 ./gr_common/lib/libm.a(lib_a-wf_fmod.o)
 D_1            0x000019cc        0x0 ./gr_common/lib/libm.a(lib_a-ef_fmod.o)
 D_1            0x000019cc        0x0 ./gr_common/lib/libm.a(lib_a-s_lib_ver.o)
 D_1            0x000019cc        0x0 ./gr_common/lib/libm.a(lib_a-s_matherr.o)
 D_1            0x000019cc        0x0 ./gr_common/lib/librxduino.a(analogio.o)
 D_1            0x000019cc        0x0 ./gr_common/lib/librxduino.a(delay.o)
 D_1            0x000019cc        0x0 ./gr_common/lib/librxduino.a(digitalio.o)
 D_1            0x000019cc        0x0 ./gr_common/lib/librxduino.a(rxduino.o)
 D_1            0x000019cc        0x0 ./gr_common/lib/libstdc++.a(string-inst.o)
 D_1            0x000019cc        0x0 ./gr_common/lib/libstdc++.a(del_op.o)
 D_1            0x000019cc        0x0 ./gr_common/lib/libstdc++.a(eh_catch.o)
 D_1            0x000019cc        0x0 ./gr_common/lib/libstdc++.a(eh_personality.o)
 D_1            0x000019cc        0x0 ./gr_common/lib/libstdc++.a(eh_exception.o)
 D_1            0x000019cc        0x0 ./gr_common/lib/libstdc++.a(new_op.o)
 D_1            0x000019cc        0x0 ./gr_common/lib/libstdc++.a(pure.o)
 D_1            0x000019cc        0x0 ./gr_common/lib/libstdc++.a(eh_globals.o)
 D_1            0x000019cc        0x0 ./gr_common/lib/libstdc++.a(eh_terminate.o)
 D_1            0x000019cc        0x0 ./gr_common/lib/libstdc++.a(eh_alloc.o)
 D_1            0x000019cc        0x0 ./gr_common/lib/libstdc++.a(functexcept.o)
 D_1            0x000019cc        0x0 ./gr_common/lib/libstdc++.a(functional.o)
 D_1            0x000019cc        0x0 ./gr_common/lib/libstdc++.a(ios_failure.o)
 D_1            0x000019cc        0x0 ./gr_common/lib/libstdc++.a(stdexcept.o)
 D_1            0x000019cc        0x0 ./gr_common/lib/libstdc++.a(system_error.o)
 D_1            0x000019cc        0x0 ./gr_common/lib/libstdc++.a(regex.o)
 D_1            0x000019cc        0x0 ./gr_common/lib/libstdc++.a(future.o)
 D_1            0x000019cc        0x0 ./gr_common/lib/libstdc++.a(bad_typeid.o)
 D_1            0x000019cc        0x0 ./gr_common/lib/libstdc++.a(bad_alloc.o)
 D_1            0x000019cc        0x0 ./gr_common/lib/libstdc++.a(eh_throw.o)
 D_1            0x000019cc        0x0 ./gr_common/lib/libstdc++.a(eh_unex_handler.o)
 D_1            0x000019cc        0x0 ./gr_common/lib/libstdc++.a(si_class_type_info.o)
 D_1            0x000019cc        0x0 ./gr_common/lib/libstdc++.a(new_handler.o)
 D_1            0x000019cc        0x0 ./gr_common/lib/libstdc++.a(bad_cast.o)
 D_1            0x000019cc        0x0 ./gr_common/lib/libstdc++.a(eh_term_handler.o)
 D_1            0x000019cc        0x0 ./gr_common/lib/libstdc++.a(class_type_info.o)
 D_1            0x000019cc        0x0 ./gr_common/lib/libstdc++.a(eh_call.o)
 D_1            0x000019cc        0x0 ./gr_common/lib/libstdc++.a(guard.o)
 D_1            0x000019cc        0x0 ./gr_common/lib/libstdc++.a(tinfo.o)
 D_1            0x000019cc        0x0 ./gr_common/lib/libstdc++.a(vterminate.o)
 D_1            0x000019cc        0x0 ./gr_common/lib/libstdc++.a(cp-demangle.o)
 D_1            0x000019cc        0x0 ./gr_common/lib/libstdc++.a(guard_error.o)
 D_1            0x000019cc        0x0 ./gr_common/lib/libstdc++.a(eh_type.o)
 D_1            0x000019cc        0x0 ./gr_common/lib/libtkdnhal.a(hwsetup.o)
 D_1            0x000019cc        0x0 ./gr_common/lib/libtkdnhal.a(tkdn_sci.o)
 D_1            0x000019cc        0x0 ./gr_common/lib/libtkdnhal.a(tkdn_ether.o)
 D_1            0x000019cc        0x0 ./gr_common/lib/libtkdnhal.a(tkdn_timer.o)
 D_1            0x000019cc        0x0 ./gr_common/lib/libtkdnhal.a(tkdn_gpio.o)
 D_1            0x000019cc        0x0 ./gr_common/lib/libtkdnhal.a(tkdn_pwm.o)
 D_1            0x000019cc        0x0 ./gr_common/lib/libtkdnhal.a(tkdn_tone.o)
 D_1            0x000019cc        0x0 ./gr_common/lib/libtkdnhal.a(tkdn_adc.o)
 D_1            0x000019cc        0x0 ./gr_common/lib/libtkdnhal.a(tkdn_dac.o)
 D_1            0x000019cc        0x0 ./gr_common/lib/libtkdnhal.a(phy.o)
 D_1            0x000019cc        0x0 ./gr_common/lib/libtkdnhal.a(usb_cdc.o)
 D_1            0x000019cc        0x0 ./gr_common/lib/libtkdnhal.a(usb_core.o)
 D_1            0x000019cc        0x0 ./gr_common/lib/libtkdnhal.a(usb_hal.o)
 D_1            0x000019cc        0x0 ./gr_common/lib/libtkdnhal.a(usbdescriptors.o)
 D_1            0x000019cc        0x0 ./gr_common/lib/libtkdnhal.a(tkdn_interrupt.o)
 D_1            0x000019cc        0x0 ./gr_common/lib/libtkdnhal.a(tkdn_servo.o)
 D_1            0x000019cc        0x0 ./gr_common/lib/libtkdnhal.a(reboot.o)
 D_1            0x000019cc        0x0 ./gr_sakura_ethernet/libethernet.a(libethernet.o)
 D_1            0x000019cc        0x0 ./gr_sakura_ethernet/libtkdnip.a(tkdnip.o)
 D_1            0x000019cc        0x0 ./gr_sakura_ethernet/libtkdnip.a(arp.o)
 D_1            0x000019cc        0x0 ./gr_sakura_ethernet/libtkdnip.a(icmp.o)
 D_1            0x000019cc        0x0 ./gr_sakura_ethernet/libtkdnip.a(dhcpc.o)
 D_1            0x000019cc        0x0 ./gr_sakura_ethernet/libtkdnip.a(ethframe.o)
 D_1            0x000019cc        0x0 ./gr_sakura_ethernet/libtkdnip.a(tcp.o)
 D_1            0x000019cc        0x0 ./gr_sakura_ethernet/libtkdnip.a(ip.o)
 D_1            0x000019cc        0x0 ./gr_common/lib/\libc.a(lib_a-abort.o)
 D_1            0x000019cc        0x0 ./gr_common/lib/\libc.a(lib_a-ctype_.o)
 D_1            0x000019cc        0x0 ./gr_common/lib/\libc.a(lib_a-fputc.o)
 D_1            0x000019cc        0x0 ./gr_common/lib/\libc.a(lib_a-fputs.o)
 D_1            0x000019cc        0x0 ./gr_common/lib/\libc.a(lib_a-fvwrite.o)
 D_1            0x000019cc        0x0 ./gr_common/lib/\libc.a(lib_a-fwrite.o)
 D_1            0x000019cc        0x0 ./gr_common/lib/\libc.a(lib_a-malloc.o)
 D_1            0x000019cc        0x0 ./gr_common/lib/\libc.a(lib_a-memcmp.o)
 D_1            0x000019cc        0x0 ./gr_common/lib/\libc.a(lib_a-putc.o)
 D_1            0x000019cc        0x0 ./gr_common/lib/\libc.a(lib_a-realloc.o)
 D_1            0x000019cc        0x0 ./gr_common/lib/\libc.a(lib_a-signal.o)
 D_1            0x000019cc        0x0 ./gr_common/lib/\libc.a(lib_a-signalr.o)
 D_1            0x000019cc        0x0 ./gr_common/lib/\libc.a(lib_a-strdup.o)
 D_1            0x000019cc        0x0 ./gr_common/lib/\libc.a(lib_a-strdup_r.o)
 D_1            0x000019cc        0x0 ./gr_common/lib/\libc.a(lib_a-strerror.o)
 D_1            0x000019cc        0x0 ./gr_common/lib/\libc.a(lib_a-strncpy.o)
 D_1            0x000019cc        0x0 ./gr_common/lib/\libc.a(lib_a-u_strerr.o)
 D_1            0x000019cc        0x0 ./gr_common/lib/\libc.a(lib_a-wbuf.o)
 D_1            0x000019cc        0x0 ./gr_common/lib/\libc.a(lib_a-wsetup.o)
 D_1            0x000019cc        0x0 ./gr_common/lib/\libc.a(lib_a-fflush.o)
 D_1            0x000019cc        0x0 ./gr_common/lib/\libc.a(lib_a-findfp.o)
 D_1            0x000019cc        0x0 ./gr_common/lib/\libc.a(lib_a-fwalk.o)
 D_1            0x000019cc        0x0 ./gr_common/lib/\libc.a(lib_a-makebuf.o)
 D_1            0x000019cc        0x0 ./gr_common/lib/\libc.a(lib_a-stdio.o)
 D_1            0x000019cc        0x0 ./gr_common/lib/\libc.a(lib_a-writer.o)
 D_1            0x000019cc        0x0 ./gr_common/lib/\libc.a(lib_a-closer.o)
 D_1            0x000019cc        0x0 ./gr_common/lib/\libc.a(lib_a-fclose.o)
 D_1            0x000019cc        0x0 ./gr_common/lib/\libc.a(lib_a-fstatr.o)
 D_1            0x000019cc        0x0 ./gr_common/lib/\libc.a(lib_a-isattyr.o)
 D_1            0x000019cc        0x0 ./gr_common/lib/\libc.a(lib_a-lseekr.o)
 D_1            0x000019cc        0x0 ./gr_common/lib/\libc.a(lib_a-readr.o)
 D_1            0x000019cc        0x0 ./gr_common/lib/\libsim.a(exit.o)
 D_1            0x000019cc        0x0 ./gr_common/lib/\libsim.a(getpid.o)
 D_1            0x000019cc        0x0 ./gr_common/lib/\libsim.a(kill.o)
 D_1            0x000019cc        0x0 ./gr_common/lib/\libgcc.a(unwind-sjlj.o)
 *(D_2)
                0x000019cc                _edata = .

.gcc_except_table._ZNSs13shrink_to_fitEv
                0x000019cc       0x10 load address 0xfff19520
 .gcc_except_table._ZNSs13shrink_to_fitEv
                0x000019cc       0x10 ./gr_common/lib/libstdc++.a(string-inst.o)

.gcc_except_table._ZStplIcSt11char_traitsIcESaIcEESbIT_T0_T1_EPKS3_RKS6_
                0x000019dc        0x6 load address 0xfff19530
 .gcc_except_table._ZStplIcSt11char_traitsIcESaIcEESbIT_T0_T1_EPKS3_RKS6_
                0x000019dc        0x6 ./gr_common/lib/libstdc++.a(string-inst.o)

.gcc_except_table._ZStplIcSt11char_traitsIcESaIcEESbIT_T0_T1_ES3_RKS6_
                0x000019e2        0x6 load address 0xfff19536
 .gcc_except_table._ZStplIcSt11char_traitsIcESaIcEESbIT_T0_T1_ES3_RKS6_
                0x000019e2        0x6 ./gr_common/lib/libstdc++.a(string-inst.o)

.gcc_except_table._ZStplIcSt11char_traitsIcESaIcEESbIT_T0_T1_ERKS6_S8_
                0x000019e8        0x6 load address 0xfff1953c
 .gcc_except_table._ZStplIcSt11char_traitsIcESaIcEESbIT_T0_T1_ERKS6_S8_
                0x000019e8        0x6 ./gr_common/lib/libstdc++.a(string-inst.o)

.gcc_except_table._ZNSs7replaceEmmPKcm
                0x000019ee        0x6 load address 0xfff19542
 .gcc_except_table._ZNSs7replaceEmmPKcm
                0x000019ee        0x6 ./gr_common/lib/libstdc++.a(string-inst.o)

.gcc_except_table.__gxx_personality_sj0
                0x000019f4       0x10 load address 0xfff19548
 .gcc_except_table.__gxx_personality_sj0
                0x000019f4       0x10 ./gr_common/lib/libstdc++.a(eh_personality.o)

.gcc_except_table.__cxa_call_unexpected
                0x00001a04       0x10 load address 0xfff19558
 .gcc_except_table.__cxa_call_unexpected
                0x00001a04       0x10 ./gr_common/lib/libstdc++.a(eh_personality.o)

.gcc_except_table._Znwm
                0x00001a14       0x14 load address 0xfff19568
 .gcc_except_table._Znwm
                0x00001a14       0x14 ./gr_common/lib/libstdc++.a(new_op.o)

.gcc_except_table._ZN10__cxxabiv111__terminateEPFvvE
                0x00001a28       0x18 load address 0xfff1957c
 .gcc_except_table._ZN10__cxxabiv111__terminateEPFvvE
                0x00001a28       0x18 ./gr_common/lib/libstdc++.a(eh_terminate.o)

.gcc_except_table._ZSt19__throw_logic_errorPKc
                0x00001a40        0x8 load address 0xfff19594
 .gcc_except_table._ZSt19__throw_logic_errorPKc
                0x00001a40        0x8 ./gr_common/lib/libstdc++.a(functexcept.o)

.gcc_except_table._ZSt20__throw_domain_errorPKc
                0x00001a48        0x8 load address 0xfff1959c
 .gcc_except_table._ZSt20__throw_domain_errorPKc
                0x00001a48        0x8 ./gr_common/lib/libstdc++.a(functexcept.o)

.gcc_except_table._ZSt24__throw_invalid_argumentPKc
                0x00001a50        0x8 load address 0xfff195a4
 .gcc_except_table._ZSt24__throw_invalid_argumentPKc
                0x00001a50        0x8 ./gr_common/lib/libstdc++.a(functexcept.o)

.gcc_except_table._ZSt20__throw_length_errorPKc
                0x00001a58        0x8 load address 0xfff195ac
 .gcc_except_table._ZSt20__throw_length_errorPKc
                0x00001a58        0x8 ./gr_common/lib/libstdc++.a(functexcept.o)

.gcc_except_table._ZSt20__throw_out_of_rangePKc
                0x00001a60        0x8 load address 0xfff195b4
 .gcc_except_table._ZSt20__throw_out_of_rangePKc
                0x00001a60        0x8 ./gr_common/lib/libstdc++.a(functexcept.o)

.gcc_except_table._ZSt21__throw_runtime_errorPKc
                0x00001a68        0x8 load address 0xfff195bc
 .gcc_except_table._ZSt21__throw_runtime_errorPKc
                0x00001a68        0x8 ./gr_common/lib/libstdc++.a(functexcept.o)

.gcc_except_table._ZSt19__throw_range_errorPKc
                0x00001a70        0x8 load address 0xfff195c4
 .gcc_except_table._ZSt19__throw_range_errorPKc
                0x00001a70        0x8 ./gr_common/lib/libstdc++.a(functexcept.o)

.gcc_except_table._ZSt22__throw_overflow_errorPKc
                0x00001a78        0x8 load address 0xfff195cc
 .gcc_except_table._ZSt22__throw_overflow_errorPKc
                0x00001a78        0x8 ./gr_common/lib/libstdc++.a(functexcept.o)

.gcc_except_table._ZSt23__throw_underflow_errorPKc
                0x00001a80        0x8 load address 0xfff195d4
 .gcc_except_table._ZSt23__throw_underflow_errorPKc
                0x00001a80        0x8 ./gr_common/lib/libstdc++.a(functexcept.o)

.gcc_except_table._ZSt19__throw_ios_failurePKc
                0x00001a88        0x6 load address 0xfff195dc
 .gcc_except_table._ZSt19__throw_ios_failurePKc
                0x00001a88        0x6 ./gr_common/lib/libstdc++.a(functexcept.o)

.gcc_except_table._ZSt20__throw_system_errori
                0x00001a8e        0x8 load address 0xfff195e2
 .gcc_except_table._ZSt20__throw_system_errori
                0x00001a8e        0x8 ./gr_common/lib/libstdc++.a(functexcept.o)

.gcc_except_table._ZSt20__throw_future_errori
                0x00001a96        0x8 load address 0xfff195ea
 .gcc_except_table._ZSt20__throw_future_errori
                0x00001a96        0x8 ./gr_common/lib/libstdc++.a(functexcept.o)

.gcc_except_table._ZSt19__throw_regex_errorNSt15regex_constants10error_typeE
                0x00001a9e        0x6 load address 0xfff195f2
 .gcc_except_table._ZSt19__throw_regex_errorNSt15regex_constants10error_typeE
                0x00001a9e        0x6 ./gr_common/lib/libstdc++.a(functexcept.o)

.gcc_except_table._ZNSt8ios_base7failureC2ERKSs
                0x00001aa4       0x10 load address 0xfff195f8
 .gcc_except_table._ZNSt8ios_base7failureC2ERKSs
                0x00001aa4       0x10 ./gr_common/lib/libstdc++.a(ios_failure.o)

.gcc_except_table._ZNSt11logic_errorC2ERKSs
                0x00001ab4        0x6 load address 0xfff19608
 .gcc_except_table._ZNSt11logic_errorC2ERKSs
                0x00001ab4        0x6 ./gr_common/lib/libstdc++.a(stdexcept.o)

.gcc_except_table._ZNSt13runtime_errorC2ERKSs
                0x00001aba        0x6 load address 0xfff1960e
 .gcc_except_table._ZNSt13runtime_errorC2ERKSs
                0x00001aba        0x6 ./gr_common/lib/libstdc++.a(stdexcept.o)

.gcc_except_table._ZNSt11regex_errorC2ENSt15regex_constants10error_typeE
                0x00001ac0        0x6 load address 0xfff19614
 .gcc_except_table._ZNSt11regex_errorC2ENSt15regex_constants10error_typeE
                0x00001ac0        0x6 ./gr_common/lib/libstdc++.a(regex.o)

.gcc_except_table._ZNKSt12future_error4whatEv
                0x00001ac8       0x10 load address 0xfff1961c
 .gcc_except_table._ZNKSt12future_error4whatEv
                0x00001ac8       0x10 ./gr_common/lib/libstdc++.a(future.o)

.gcc_except_table._ZNK12_GLOBAL__N_121future_error_category7messageEi
                0x00001ad8        0x6 load address 0xfff1962c
 .gcc_except_table._ZNK12_GLOBAL__N_121future_error_category7messageEi
                0x00001ad8        0x6 ./gr_common/lib/libstdc++.a(future.o)

.gcc_except_table._ZSt15future_categoryv
                0x00001ade        0x6 load address 0xfff19632
 .gcc_except_table._ZSt15future_categoryv
                0x00001ade        0x6 ./gr_common/lib/libstdc++.a(future.o)

.gcc_except_table._ZN9__gnu_cxx27__verbose_terminate_handlerEv
                0x00001ae4       0x18 load address 0xfff19638
 .gcc_except_table._ZN9__gnu_cxx27__verbose_terminate_handlerEv
                0x00001ae4       0x18 ./gr_common/lib/libstdc++.a(vterminate.o)

.gcc_exc
 *(.gcc_exc)

.bss            0x00001afc     0x2744 load address 0xfff19650
                0x00001afc                _bss = .
 *(.bss)
 *(.bss.*)
 .bss._PathLocale
                0x00001afc        0x4 ./gr_common/lib/libc.a(lib_a-locale.o)
                0x00001afc                _PathLocale
 .bss.__mlocale_changed
                0x00001b00        0x4 ./gr_common/lib/libc.a(lib_a-locale.o)
                0x00001b00                __mlocale_changed
 .bss.__nlocale_changed
                0x00001b04        0x4 ./gr_common/lib/libc.a(lib_a-locale.o)
                0x00001b04                __nlocale_changed
 .bss.__malloc_current_mallinfo
                0x00001b08       0x28 ./gr_common/lib/libc.a(lib_a-mallocr.o)
                0x00001b08                __malloc_current_mallinfo
 .bss.__malloc_max_total_mem
                0x00001b30        0x4 ./gr_common/lib/libc.a(lib_a-mallocr.o)
                0x00001b30                __malloc_max_total_mem
 .bss.__malloc_max_sbrked_mem
                0x00001b34        0x4 ./gr_common/lib/libc.a(lib_a-mallocr.o)
                0x00001b34                __malloc_max_sbrked_mem
 .bss.__malloc_top_pad
                0x00001b38        0x4 ./gr_common/lib/libc.a(lib_a-mallocr.o)
                0x00001b38                __malloc_top_pad
 .bss._ZNSs4_Rep20_S_empty_rep_storageE
                0x00001b3c       0x10 ./gr_common/lib/libstdc++.a(string-inst.o)
                0x00001b3c                std::string::_Rep::_S_empty_rep_storage
 .bss._ZL10eh_globals
                0x00001b4c        0x8 ./gr_common/lib/libstdc++.a(eh_globals.o)
 .bss._ZL14emergency_used
                0x00001b54        0x4 ./gr_common/lib/libstdc++.a(eh_alloc.o)
 .bss._ZL16emergency_buffer
                0x00001b58      0x800 ./gr_common/lib/libstdc++.a(eh_alloc.o)
 .bss._ZL15dependents_used
                0x00002358        0x4 ./gr_common/lib/libstdc++.a(eh_alloc.o)
 .bss._ZL17dependents_buffer
                0x0000235c       0xf0 ./gr_common/lib/libstdc++.a(eh_alloc.o)
 .bss._ZN12_GLOBAL__N_1L24system_category_instanceE
                0x0000244c        0x4 ./gr_common/lib/libstdc++.a(system_error.o)
 .bss._ZN12_GLOBAL__N_1L25generic_category_instanceE
                0x00002450        0x4 ./gr_common/lib/libstdc++.a(system_error.o)
 .bss._ZGVZN12_GLOBAL__N_126__future_category_instanceEvE5__fec
                0x00002454        0x8 ./gr_common/lib/libstdc++.a(future.o)
 .bss._ZZN12_GLOBAL__N_126__future_category_instanceEvE5__fec
                0x0000245c        0x4 ./gr_common/lib/libstdc++.a(future.o)
 .bss.__new_handler
                0x00002460        0x4 ./gr_common/lib/libstdc++.a(new_handler.o)
                0x00002460                __new_handler
 .bss._ZZN9__gnu_cxx27__verbose_terminate_handlerEvE11terminating
                0x00002464        0x1 ./gr_common/lib/libstdc++.a(vterminate.o)
 *(COMMON)
 *fill*         0x00002465        0x3 00
 COMMON         0x00002468        0x4 ./gr_common/lib/libc.a(lib_a-reent.o)
                0x00002468                errno
 COMMON         0x0000246c      0x238 ./gr_common/lib/libtkdnhal.a(tkdn_sci.o)
                0x0000246c                sci_default
                0x00002688                sci_handles
                0x000026a0                psci_default
 COMMON         0x000026a4        0x4 ./gr_common/lib/libtkdnhal.a(tkdn_ether.o)
                0x000026a4                user_rx_func
 COMMON         0x000026a8       0x20 ./gr_common/lib/libtkdnhal.a(tkdn_interrupt.o)
                0x000026a8                ifunc
 COMMON         0x000026c8       0x14 ./gr_sakura_ethernet/libtkdnip.a(tkdnip.o)
                0x000026c8                g_dns_records
                0x000026cc                recvpacket
                0x000026d0                g_packet_received
                0x000026d4                sendpacket
                0x000026d8                count
 COMMON         0x000026dc        0x8 ./gr_sakura_ethernet/libtkdnip.a(icmp.o)
                0x000026dc                g_ping_process
                0x000026de                g_ping_seq
                0x000026e0                g_ping_timer
 COMMON         0x000026e4       0x18 ./gr_sakura_ethernet/libtkdnip.a(dhcpc.o)
                0x000026e4                g_dhcpc_state
                0x000026e8                g_dhcp_dns0
                0x000026ec                g_dhcp_gateway
                0x000026f0                g_dhcp_server
                0x000026f4                g_dhcp_recv_ip
                0x000026f8                g_dhcp_subnet
 COMMON         0x000026fc      0x2c0 ./gr_sakura_ethernet/libtkdnip.a(tcp.o)
                0x000026fc                tcp_connections
 COMMON         0x000029bc        0x4 ./gr_sakura_ethernet/libtkdnip.a(ip.o)
                0x000029bc                g_ipseq
 *(B)
 B              0x000029c0       0x14 ./gr_sketch.o
                0x000029c0                udpRecvMsg
                0x000029c4                memo_ip
                0x000029c8                getFlag
                0x000029cc                Ethernet
                0x000029d0                has_dhcp_get
                0x000029d1                has_ether_init
 B              0x000029d4        0x8 ./gr_common/lib/libtkdnhal.a(tkdn_timer.o)
                0x000029d4                ms_updated
                0x000029d8                tim_1ms
 B              0x000029dc        0x4 ./gr_common/lib/libtkdnhal.a(tkdn_pwm.o)
                0x000029dc                pwmpincount
 B              0x000029e0       0x24 ./gr_sakura_ethernet/libtkdnip.a(tkdnip.o)
                0x000029e0                ns_ipaddr
                0x000029e4                gw_ipaddr
                0x000029e8                my_ipmask
                0x000029ec                my_ipaddr
                0x000029f0                my_macaddr
                0x000029f8                udpfunc
                0x000029fc                g_linkup
                0x00002a00                g_dump
 *(B_1)
 B_1            0x00002a04        0x0 ./gr_common/gstart.o
 B_1            0x00002a04        0x0 ./gr_sketch.o
 B_1            0x00002a04        0x0 ./gr_common/intvect.o
 B_1            0x00002a04        0x0 ./gr_common/lowlevel.o
 B_1            0x00002a04        0x0 ./gr_common/lib/libc.a(lib_a-errno.o)
 B_1            0x00002a04        0x0 ./gr_common/lib/libc.a(lib_a-impure.o)
 B_1            0x00002a04        0x0 ./gr_common/lib/libc.a(lib_a-sprintf.o)
 B_1            0x00002a04        0x0 ./gr_common/lib/libc.a(lib_a-svfprintf.o)
 B_1            0x00002a04        0x0 ./gr_common/lib/libc.a(lib_a-dtoa.o)
 B_1            0x00002a04        0x0 ./gr_common/lib/libc.a(lib_a-locale.o)
 B_1            0x00002a04        0x0 ./gr_common/lib/libc.a(lib_a-mallocr.o)
 B_1            0x00002a04        0x0 ./gr_common/lib/libc.a(lib_a-memchr.o)
 B_1            0x00002a04        0x0 ./gr_common/lib/libc.a(lib_a-memcpy.o)
 B_1            0x00002a04        0x0 ./gr_common/lib/libc.a(lib_a-mlock.o)
 B_1            0x00002a04        0x0 ./gr_common/lib/libc.a(lib_a-mprec.o)
 B_1            0x00002a04        0x0 ./gr_common/lib/libc.a(lib_a-sbrkr.o)
 B_1            0x00002a04        0x0 ./gr_common/lib/libc.a(lib_a-sf_fpclassify.o)
 B_1            0x00002a04        0x0 ./gr_common/lib/libc.a(lib_a-strcmp.o)
 B_1            0x00002a04        0x0 ./gr_common/lib/libc.a(lib_a-strlen.o)
 B_1            0x00002a04        0x0 ./gr_common/lib/libc.a(lib_a-svfiprintf.o)
 B_1            0x00002a04        0x0 ./gr_common/lib/libc.a(lib_a-callocr.o)
 B_1            0x00002a04        0x0 ./gr_common/lib/libc.a(lib_a-freer.o)
 B_1            0x00002a04        0x0 ./gr_common/lib/libc.a(lib_a-memmove.o)
 B_1            0x00002a04        0x0 ./gr_common/lib/libc.a(lib_a-memset.o)
 B_1            0x00002a04        0x0 ./gr_common/lib/libc.a(lib_a-reallocr.o)
 B_1            0x00002a04        0x0 ./gr_common/lib/libc.a(lib_a-reent.o)
 B_1            0x00002a04        0x0 ./gr_common/lib/libgcc.a(_udivdi3.o)
 B_1            0x00002a04        0x0 ./gr_common/lib/libgcc.a(_umoddi3.o)
 B_1            0x00002a04        0x0 ./gr_common/lib/libgcc.a(_clz.o)
 B_1            0x00002a04        0x0 ./gr_common/lib/libm.a(lib_a-wf_fmod.o)
 B_1            0x00002a04        0x0 ./gr_common/lib/libm.a(lib_a-ef_fmod.o)
 B_1            0x00002a04        0x0 ./gr_common/lib/libm.a(lib_a-s_lib_ver.o)
 B_1            0x00002a04        0x0 ./gr_common/lib/libm.a(lib_a-s_matherr.o)
 B_1            0x00002a04        0x4 ./gr_common/lib/librxduino.a(analogio.o)
 B_1            0x00002a08        0x0 ./gr_common/lib/librxduino.a(delay.o)
 B_1            0x00002a08        0x0 ./gr_common/lib/librxduino.a(digitalio.o)
 B_1            0x00002a08        0x4 ./gr_common/lib/librxduino.a(rxduino.o)
 B_1            0x00002a0c        0x0 ./gr_common/lib/libstdc++.a(string-inst.o)
 B_1            0x00002a0c        0x0 ./gr_common/lib/libstdc++.a(del_op.o)
 B_1            0x00002a0c        0x0 ./gr_common/lib/libstdc++.a(eh_catch.o)
 B_1            0x00002a0c        0x0 ./gr_common/lib/libstdc++.a(eh_personality.o)
 B_1            0x00002a0c        0x0 ./gr_common/lib/libstdc++.a(eh_exception.o)
 B_1            0x00002a0c        0x0 ./gr_common/lib/libstdc++.a(new_op.o)
 B_1            0x00002a0c        0x0 ./gr_common/lib/libstdc++.a(pure.o)
 B_1            0x00002a0c        0x0 ./gr_common/lib/libstdc++.a(eh_globals.o)
 B_1            0x00002a0c        0x0 ./gr_common/lib/libstdc++.a(eh_terminate.o)
 B_1            0x00002a0c        0x0 ./gr_common/lib/libstdc++.a(eh_alloc.o)
 B_1            0x00002a0c        0x0 ./gr_common/lib/libstdc++.a(functexcept.o)
 B_1            0x00002a0c        0x0 ./gr_common/lib/libstdc++.a(functional.o)
 B_1            0x00002a0c        0x0 ./gr_common/lib/libstdc++.a(ios_failure.o)
 B_1            0x00002a0c        0x0 ./gr_common/lib/libstdc++.a(stdexcept.o)
 B_1            0x00002a0c        0x0 ./gr_common/lib/libstdc++.a(system_error.o)
 B_1            0x00002a0c        0x0 ./gr_common/lib/libstdc++.a(regex.o)
 B_1            0x00002a0c        0x0 ./gr_common/lib/libstdc++.a(future.o)
 B_1            0x00002a0c        0x0 ./gr_common/lib/libstdc++.a(bad_typeid.o)
 B_1            0x00002a0c        0x0 ./gr_common/lib/libstdc++.a(bad_alloc.o)
 B_1            0x00002a0c        0x0 ./gr_common/lib/libstdc++.a(eh_throw.o)
 B_1            0x00002a0c        0x0 ./gr_common/lib/libstdc++.a(eh_unex_handler.o)
 B_1            0x00002a0c        0x0 ./gr_common/lib/libstdc++.a(si_class_type_info.o)
 B_1            0x00002a0c        0x0 ./gr_common/lib/libstdc++.a(new_handler.o)
 B_1            0x00002a0c        0x0 ./gr_common/lib/libstdc++.a(bad_cast.o)
 B_1            0x00002a0c        0x0 ./gr_common/lib/libstdc++.a(eh_term_handler.o)
 B_1            0x00002a0c        0x0 ./gr_common/lib/libstdc++.a(class_type_info.o)
 B_1            0x00002a0c        0x0 ./gr_common/lib/libstdc++.a(eh_call.o)
 B_1            0x00002a0c        0x0 ./gr_common/lib/libstdc++.a(guard.o)
 B_1            0x00002a0c        0x0 ./gr_common/lib/libstdc++.a(tinfo.o)
 B_1            0x00002a0c        0x0 ./gr_common/lib/libstdc++.a(vterminate.o)
 B_1            0x00002a0c        0x0 ./gr_common/lib/libstdc++.a(cp-demangle.o)
 B_1            0x00002a0c        0x0 ./gr_common/lib/libstdc++.a(guard_error.o)
 B_1            0x00002a0c        0x0 ./gr_common/lib/libstdc++.a(eh_type.o)
 B_1            0x00002a0c        0x0 ./gr_common/lib/libtkdnhal.a(hwsetup.o)
 B_1            0x00002a0c        0x0 ./gr_common/lib/libtkdnhal.a(tkdn_sci.o)
 B_1            0x00002a0c        0x2 ./gr_common/lib/libtkdnhal.a(tkdn_ether.o)
 *fill*         0x00002a0e        0x2 00
 B_1            0x00002a10        0xc ./gr_common/lib/libtkdnhal.a(tkdn_timer.o)
 B_1            0x00002a1c        0x0 ./gr_common/lib/libtkdnhal.a(tkdn_gpio.o)
 B_1            0x00002a1c       0x70 ./gr_common/lib/libtkdnhal.a(tkdn_pwm.o)
 B_1            0x00002a8c        0xc ./gr_common/lib/libtkdnhal.a(tkdn_tone.o)
 B_1            0x00002a98        0x1 ./gr_common/lib/libtkdnhal.a(tkdn_adc.o)
 B_1            0x00002a99        0x1 ./gr_common/lib/libtkdnhal.a(tkdn_dac.o)
 B_1            0x00002a9a        0x0 ./gr_common/lib/libtkdnhal.a(phy.o)
 *fill*         0x00002a9a        0x2 00
 B_1            0x00002a9c       0x10 ./gr_common/lib/libtkdnhal.a(usb_cdc.o)
 B_1            0x00002aac       0x14 ./gr_common/lib/libtkdnhal.a(usb_core.o)
 B_1            0x00002ac0      0x44c ./gr_common/lib/libtkdnhal.a(usb_hal.o)
 B_1            0x00002f0c        0x0 ./gr_common/lib/libtkdnhal.a(usbdescriptors.o)
 B_1            0x00002f0c        0x0 ./gr_common/lib/libtkdnhal.a(tkdn_interrupt.o)
 B_1            0x00002f0c       0xa4 ./gr_common/lib/libtkdnhal.a(tkdn_servo.o)
 B_1            0x00002fb0        0x0 ./gr_common/lib/libtkdnhal.a(reboot.o)
 B_1            0x00002fb0       0x18 ./gr_sakura_ethernet/libethernet.a(libethernet.o)
 B_1            0x00002fc8       0x1c ./gr_sakura_ethernet/libtkdnip.a(tkdnip.o)
 B_1            0x00002fe4       0x44 ./gr_sakura_ethernet/libtkdnip.a(arp.o)
 B_1            0x00003028        0x0 ./gr_sakura_ethernet/libtkdnip.a(icmp.o)
 B_1            0x00003028        0x0 ./gr_sakura_ethernet/libtkdnip.a(dhcpc.o)
 B_1            0x00003028        0x0 ./gr_sakura_ethernet/libtkdnip.a(ethframe.o)
 B_1            0x00003028      0x110 ./gr_sakura_ethernet/libtkdnip.a(tcp.o)
 B_1            0x00003138        0x0 ./gr_sakura_ethernet/libtkdnip.a(ip.o)
 B_1            0x00003138        0x0 ./gr_common/lib/\libc.a(lib_a-abort.o)
 B_1            0x00003138        0x0 ./gr_common/lib/\libc.a(lib_a-ctype_.o)
 B_1            0x00003138        0x0 ./gr_common/lib/\libc.a(lib_a-fputc.o)
 B_1            0x00003138        0x0 ./gr_common/lib/\libc.a(lib_a-fputs.o)
 B_1            0x00003138        0x0 ./gr_common/lib/\libc.a(lib_a-fvwrite.o)
 B_1            0x00003138        0x0 ./gr_common/lib/\libc.a(lib_a-fwrite.o)
 B_1            0x00003138        0x0 ./gr_common/lib/\libc.a(lib_a-malloc.o)
 B_1            0x00003138        0x0 ./gr_common/lib/\libc.a(lib_a-memcmp.o)
 B_1            0x00003138        0x0 ./gr_common/lib/\libc.a(lib_a-putc.o)
 B_1            0x00003138        0x0 ./gr_common/lib/\libc.a(lib_a-realloc.o)
 B_1            0x00003138        0x0 ./gr_common/lib/\libc.a(lib_a-signal.o)
 B_1            0x00003138        0x0 ./gr_common/lib/\libc.a(lib_a-signalr.o)
 B_1            0x00003138        0x0 ./gr_common/lib/\libc.a(lib_a-strdup.o)
 B_1            0x00003138        0x0 ./gr_common/lib/\libc.a(lib_a-strdup_r.o)
 B_1            0x00003138        0x0 ./gr_common/lib/\libc.a(lib_a-strerror.o)
 B_1            0x00003138        0x0 ./gr_common/lib/\libc.a(lib_a-strncpy.o)
 B_1            0x00003138        0x0 ./gr_common/lib/\libc.a(lib_a-u_strerr.o)
 B_1            0x00003138        0x0 ./gr_common/lib/\libc.a(lib_a-wbuf.o)
 B_1            0x00003138        0x0 ./gr_common/lib/\libc.a(lib_a-wsetup.o)
 B_1            0x00003138        0x0 ./gr_common/lib/\libc.a(lib_a-fflush.o)
 B_1            0x00003138        0x0 ./gr_common/lib/\libc.a(lib_a-findfp.o)
 B_1            0x00003138        0x0 ./gr_common/lib/\libc.a(lib_a-fwalk.o)
 B_1            0x00003138        0x0 ./gr_common/lib/\libc.a(lib_a-makebuf.o)
 B_1            0x00003138        0x0 ./gr_common/lib/\libc.a(lib_a-stdio.o)
 B_1            0x00003138        0x0 ./gr_common/lib/\libc.a(lib_a-writer.o)
 B_1            0x00003138        0x0 ./gr_common/lib/\libc.a(lib_a-closer.o)
 B_1            0x00003138        0x0 ./gr_common/lib/\libc.a(lib_a-fclose.o)
 B_1            0x00003138        0x0 ./gr_common/lib/\libc.a(lib_a-fstatr.o)
 B_1            0x00003138        0x0 ./gr_common/lib/\libc.a(lib_a-isattyr.o)
 B_1            0x00003138        0x0 ./gr_common/lib/\libc.a(lib_a-lseekr.o)
 B_1            0x00003138        0x0 ./gr_common/lib/\libc.a(lib_a-readr.o)
 B_1            0x00003138        0x0 ./gr_common/lib/\libsim.a(exit.o)
 B_1            0x00003138        0x0 ./gr_common/lib/\libsim.a(getpid.o)
 B_1            0x00003138        0x0 ./gr_common/lib/\libsim.a(kill.o)
 B_1            0x00003138        0x4 ./gr_common/lib/\libgcc.a(unwind-sjlj.o)
 *(B_2)
                0x00003140                . = ALIGN (0x20)
 *fill*         0x0000313c        0x4 00
 *(.etherdesc)
 .etherdesc     0x00003140     0x1100 ./gr_common/lib/libtkdnhal.a(tkdn_ether.o)
                0x00004240                _ebss = .
                0x00004240                _end = .
OUTPUT(./gr_build/sketch.x elf32-rx-le)

.debug_frame    0x00000000      0xc54
 .debug_frame   0x00000000       0xd8 ./gr_sketch.o
 .debug_frame   0x000000d8      0x880 ./gr_common/intvect.o
 .debug_frame   0x00000958       0xb8 ./gr_common/lowlevel.o
 .debug_frame   0x00000a10       0x38 ./gr_common/lib/libgcc.a(_udivdi3.o)
 .debug_frame   0x00000a48       0x38 ./gr_common/lib/libgcc.a(_umoddi3.o)
 .debug_frame   0x00000a80      0x1d4 ./gr_common/lib/\libgcc.a(unwind-sjlj.o)

.debug_info     0x00000000     0x7112
 .debug_info    0x00000000     0x41d8 ./gr_sketch.o
 .debug_info    0x000041d8      0xc97 ./gr_common/intvect.o
 .debug_info    0x00004e6f      0x597 ./gr_common/lowlevel.o
 .debug_info    0x00005406      0x72a ./gr_common/lib/libgcc.a(_udivdi3.o)
 .debug_info    0x00005b30      0x77b ./gr_common/lib/libgcc.a(_umoddi3.o)
 .debug_info    0x000062ab       0xb4 ./gr_common/lib/libgcc.a(_clz.o)
 .debug_info    0x0000635f       0xbb ./gr_common/lib/\libsim.a(exit.o)
 .debug_info    0x0000641a       0xbd ./gr_common/lib/\libsim.a(getpid.o)
 .debug_info    0x000064d7       0xbb ./gr_common/lib/\libsim.a(kill.o)
 .debug_info    0x00006592      0xb80 ./gr_common/lib/\libgcc.a(unwind-sjlj.o)

.debug_abbrev   0x00000000     0x1169
 .debug_abbrev  0x00000000      0x7d9 ./gr_sketch.o
 .debug_abbrev  0x000007d9      0x11e ./gr_common/intvect.o
 .debug_abbrev  0x000008f7      0x191 ./gr_common/lowlevel.o
 .debug_abbrev  0x00000a88      0x17e ./gr_common/lib/libgcc.a(_udivdi3.o)
 .debug_abbrev  0x00000c06      0x1a1 ./gr_common/lib/libgcc.a(_umoddi3.o)
 .debug_abbrev  0x00000da7       0x61 ./gr_common/lib/libgcc.a(_clz.o)
 .debug_abbrev  0x00000e08       0x14 ./gr_common/lib/\libsim.a(exit.o)
 .debug_abbrev  0x00000e1c       0x14 ./gr_common/lib/\libsim.a(getpid.o)
 .debug_abbrev  0x00000e30       0x14 ./gr_common/lib/\libsim.a(kill.o)
 .debug_abbrev  0x00000e44      0x325 ./gr_common/lib/\libgcc.a(unwind-sjlj.o)

.debug_loc      0x00000000     0x2930
 .debug_loc     0x00000000      0x2a0 ./gr_sketch.o
 .debug_loc     0x000002a0      0x138 ./gr_common/intvect.o
 .debug_loc     0x000003d8      0x3fb ./gr_common/lowlevel.o
 .debug_loc     0x000007d3      0xdc1 ./gr_common/lib/libgcc.a(_udivdi3.o)
 .debug_loc     0x00001594      0xc8f ./gr_common/lib/libgcc.a(_umoddi3.o)
 .debug_loc     0x00002223      0x70d ./gr_common/lib/\libgcc.a(unwind-sjlj.o)

.debug_aranges  0x00000000      0x128
 .debug_aranges
                0x00000000       0x28 ./gr_sketch.o
 .debug_aranges
                0x00000028       0x20 ./gr_common/intvect.o
 .debug_aranges
                0x00000048       0x20 ./gr_common/lowlevel.o
 .debug_aranges
                0x00000068       0x20 ./gr_common/lib/libgcc.a(_udivdi3.o)
 .debug_aranges
                0x00000088       0x20 ./gr_common/lib/libgcc.a(_umoddi3.o)
 .debug_aranges
                0x000000a8       0x20 ./gr_common/lib/\libsim.a(exit.o)
 .debug_aranges
                0x000000c8       0x20 ./gr_common/lib/\libsim.a(getpid.o)
 .debug_aranges
                0x000000e8       0x20 ./gr_common/lib/\libsim.a(kill.o)
 .debug_aranges
                0x00000108       0x20 ./gr_common/lib/\libgcc.a(unwind-sjlj.o)

.debug_ranges   0x00000000      0x4d0
 .debug_ranges  0x00000000       0x88 ./gr_sketch.o
 .debug_ranges  0x00000088       0x18 ./gr_common/lowlevel.o
 .debug_ranges  0x000000a0      0x1d8 ./gr_common/lib/libgcc.a(_udivdi3.o)
 .debug_ranges  0x00000278      0x190 ./gr_common/lib/libgcc.a(_umoddi3.o)
 .debug_ranges  0x00000408       0xc8 ./gr_common/lib/\libgcc.a(unwind-sjlj.o)

.debug_line     0x00000000     0x18e8
 .debug_line    0x00000000      0x714 ./gr_sketch.o
 .debug_line    0x00000714      0x19a ./gr_common/intvect.o
 .debug_line    0x000008ae      0x1f7 ./gr_common/lowlevel.o
 .debug_line    0x00000aa5      0x2ea ./gr_common/lib/libgcc.a(_udivdi3.o)
 .debug_line    0x00000d8f      0x2e1 ./gr_common/lib/libgcc.a(_umoddi3.o)
 .debug_line    0x00001070       0x55 ./gr_common/lib/libgcc.a(_clz.o)
 .debug_line    0x000010c5       0x74 ./gr_common/lib/\libsim.a(exit.o)
 .debug_line    0x00001139       0x73 ./gr_common/lib/\libsim.a(getpid.o)
 .debug_line    0x000011ac       0x71 ./gr_common/lib/\libsim.a(kill.o)
 .debug_line    0x0000121d      0x6cb ./gr_common/lib/\libgcc.a(unwind-sjlj.o)

.debug_str      0x00000000     0x334b
 .debug_str     0x00000000     0x2309 ./gr_sketch.o
                               0x2581 (size before relaxing)
 .debug_str     0x00002309      0x8d7 ./gr_common/intvect.o
                                0x976 (size before relaxing)
 .debug_str     0x00002be0      0x139 ./gr_common/lowlevel.o
                                0x295 (size before relaxing)
 .debug_str     0x00002d19       0xfe ./gr_common/lib/libgcc.a(_udivdi3.o)
                                0x19b (size before relaxing)
 .debug_str     0x00002e17        0xa ./gr_common/lib/libgcc.a(_umoddi3.o)
                                0x19b (size before relaxing)
 .debug_str     0x00000000      0x105 ./gr_common/lib/libgcc.a(_clz.o)
 .debug_str     0x00002e21      0x52a ./gr_common/lib/\libgcc.a(unwind-sjlj.o)
                                0x605 (size before relaxing)

.comment        0x00000000       0x49
 .comment       0x00000000       0x1c ./gr_sketch.o
                                 0x1d (size before relaxing)
 .comment       0x00000000       0x1d ./gr_common/intvect.o
 .comment       0x00000000       0x1d ./gr_common/lowlevel.o
 .comment       0x0000001c       0x1c ./gr_common/lib/libc.a(lib_a-errno.o)
                                 0x1d (size before relaxing)
 .comment       0x00000000       0x1d ./gr_common/lib/libc.a(lib_a-impure.o)
 .comment       0x00000000       0x1d ./gr_common/lib/libc.a(lib_a-sprintf.o)
 .comment       0x00000000       0x1d ./gr_common/lib/libc.a(lib_a-svfprintf.o)
 .comment       0x00000000       0x1d ./gr_common/lib/libc.a(lib_a-dtoa.o)
 .comment       0x00000000       0x1d ./gr_common/lib/libc.a(lib_a-locale.o)
 .comment       0x00000000       0x1d ./gr_common/lib/libc.a(lib_a-mallocr.o)
 .comment       0x00000000       0x1d ./gr_common/lib/libc.a(lib_a-mlock.o)
 .comment       0x00000000       0x1d ./gr_common/lib/libc.a(lib_a-mprec.o)
 .comment       0x00000000       0x1d ./gr_common/lib/libc.a(lib_a-sbrkr.o)
 .comment       0x00000000       0x1d ./gr_common/lib/libc.a(lib_a-sf_fpclassify.o)
 .comment       0x00000000       0x1d ./gr_common/lib/libc.a(lib_a-svfiprintf.o)
 .comment       0x00000000       0x1d ./gr_common/lib/libc.a(lib_a-callocr.o)
 .comment       0x00000000       0x1d ./gr_common/lib/libc.a(lib_a-freer.o)
 .comment       0x00000000       0x1d ./gr_common/lib/libc.a(lib_a-reallocr.o)
 .comment       0x00000000       0x1d ./gr_common/lib/libc.a(lib_a-reent.o)
 .comment       0x00000038       0x11 ./gr_common/lib/libgcc.a(_udivdi3.o)
                                 0x12 (size before relaxing)
 .comment       0x00000000       0x12 ./gr_common/lib/libgcc.a(_umoddi3.o)
 .comment       0x00000000       0x12 ./gr_common/lib/libgcc.a(_clz.o)
 .comment       0x00000000       0x1d ./gr_common/lib/libm.a(lib_a-wf_fmod.o)
 .comment       0x00000000       0x1d ./gr_common/lib/libm.a(lib_a-ef_fmod.o)
 .comment       0x00000000       0x1d ./gr_common/lib/libm.a(lib_a-s_lib_ver.o)
 .comment       0x00000000       0x1d ./gr_common/lib/libm.a(lib_a-s_matherr.o)
 .comment       0x00000000       0x12 ./gr_common/lib/librxduino.a(analogio.o)
 .comment       0x00000000       0x12 ./gr_common/lib/librxduino.a(delay.o)
 .comment       0x00000000       0x12 ./gr_common/lib/librxduino.a(digitalio.o)
 .comment       0x00000000       0x12 ./gr_common/lib/librxduino.a(rxduino.o)
 .comment       0x00000000       0x1d ./gr_common/lib/libstdc++.a(string-inst.o)
 .comment       0x00000000       0x1d ./gr_common/lib/libstdc++.a(del_op.o)
 .comment       0x00000000       0x1d ./gr_common/lib/libstdc++.a(eh_catch.o)
 .comment       0x00000000       0x1d ./gr_common/lib/libstdc++.a(eh_personality.o)
 .comment       0x00000000       0x1d ./gr_common/lib/libstdc++.a(eh_exception.o)
 .comment       0x00000000       0x1d ./gr_common/lib/libstdc++.a(new_op.o)
 .comment       0x00000000       0x1d ./gr_common/lib/libstdc++.a(pure.o)
 .comment       0x00000000       0x1d ./gr_common/lib/libstdc++.a(eh_globals.o)
 .comment       0x00000000       0x1d ./gr_common/lib/libstdc++.a(eh_terminate.o)
 .comment       0x00000000       0x1d ./gr_common/lib/libstdc++.a(eh_alloc.o)
 .comment       0x00000000       0x1d ./gr_common/lib/libstdc++.a(functexcept.o)
 .comment       0x00000000       0x1d ./gr_common/lib/libstdc++.a(functional.o)
 .comment       0x00000000       0x1d ./gr_common/lib/libstdc++.a(ios_failure.o)
 .comment       0x00000000       0x1d ./gr_common/lib/libstdc++.a(stdexcept.o)
 .comment       0x00000000       0x1d ./gr_common/lib/libstdc++.a(system_error.o)
 .comment       0x00000000       0x1d ./gr_common/lib/libstdc++.a(regex.o)
 .comment       0x00000000       0x1d ./gr_common/lib/libstdc++.a(future.o)
 .comment       0x00000000       0x1d ./gr_common/lib/libstdc++.a(bad_typeid.o)
 .comment       0x00000000       0x1d ./gr_common/lib/libstdc++.a(bad_alloc.o)
 .comment       0x00000000       0x1d ./gr_common/lib/libstdc++.a(eh_throw.o)
 .comment       0x00000000       0x1d ./gr_common/lib/libstdc++.a(eh_unex_handler.o)
 .comment       0x00000000       0x1d ./gr_common/lib/libstdc++.a(si_class_type_info.o)
 .comment       0x00000000       0x1d ./gr_common/lib/libstdc++.a(new_handler.o)
 .comment       0x00000000       0x1d ./gr_common/lib/libstdc++.a(bad_cast.o)
 .comment       0x00000000       0x1d ./gr_common/lib/libstdc++.a(eh_term_handler.o)
 .comment       0x00000000       0x1d ./gr_common/lib/libstdc++.a(class_type_info.o)
 .comment       0x00000000       0x1d ./gr_common/lib/libstdc++.a(eh_call.o)
 .comment       0x00000000       0x1d ./gr_common/lib/libstdc++.a(guard.o)
 .comment       0x00000000       0x1d ./gr_common/lib/libstdc++.a(tinfo.o)
 .comment       0x00000000       0x1d ./gr_common/lib/libstdc++.a(vterminate.o)
 .comment       0x00000000       0x1d ./gr_common/lib/libstdc++.a(cp-demangle.o)
 .comment       0x00000000       0x1d ./gr_common/lib/libstdc++.a(guard_error.o)
 .comment       0x00000000       0x1d ./gr_common/lib/libstdc++.a(eh_type.o)
 .comment       0x00000000       0x12 ./gr_common/lib/libtkdnhal.a(hwsetup.o)
 .comment       0x00000000       0x12 ./gr_common/lib/libtkdnhal.a(tkdn_sci.o)
 .comment       0x00000000       0x12 ./gr_common/lib/libtkdnhal.a(tkdn_ether.o)
 .comment       0x00000000       0x12 ./gr_common/lib/libtkdnhal.a(tkdn_timer.o)
 .comment       0x00000000       0x12 ./gr_common/lib/libtkdnhal.a(tkdn_gpio.o)
 .comment       0x00000000       0x12 ./gr_common/lib/libtkdnhal.a(tkdn_pwm.o)
 .comment       0x00000000       0x12 ./gr_common/lib/libtkdnhal.a(tkdn_tone.o)
 .comment       0x00000000       0x12 ./gr_common/lib/libtkdnhal.a(tkdn_adc.o)
 .comment       0x00000000       0x12 ./gr_common/lib/libtkdnhal.a(tkdn_dac.o)
 .comment       0x00000000       0x12 ./gr_common/lib/libtkdnhal.a(phy.o)
 .comment       0x00000000       0x12 ./gr_common/lib/libtkdnhal.a(usb_cdc.o)
 .comment       0x00000000       0x12 ./gr_common/lib/libtkdnhal.a(usb_core.o)
 .comment       0x00000000       0x12 ./gr_common/lib/libtkdnhal.a(usb_hal.o)
 .comment       0x00000000       0x12 ./gr_common/lib/libtkdnhal.a(usbdescriptors.o)
 .comment       0x00000000       0x12 ./gr_common/lib/libtkdnhal.a(tkdn_interrupt.o)
 .comment       0x00000000       0x12 ./gr_common/lib/libtkdnhal.a(tkdn_servo.o)
 .comment       0x00000000       0x12 ./gr_common/lib/libtkdnhal.a(reboot.o)
 .comment       0x00000000       0x12 ./gr_sakura_ethernet/libethernet.a(libethernet.o)
 .comment       0x00000000       0x12 ./gr_sakura_ethernet/libtkdnip.a(tkdnip.o)
 .comment       0x00000000       0x12 ./gr_sakura_ethernet/libtkdnip.a(arp.o)
 .comment       0x00000000       0x12 ./gr_sakura_ethernet/libtkdnip.a(icmp.o)
 .comment       0x00000000       0x12 ./gr_sakura_ethernet/libtkdnip.a(dhcpc.o)
 .comment       0x00000000       0x12 ./gr_sakura_ethernet/libtkdnip.a(ethframe.o)
 .comment       0x00000000       0x12 ./gr_sakura_ethernet/libtkdnip.a(tcp.o)
 .comment       0x00000000       0x12 ./gr_sakura_ethernet/libtkdnip.a(ip.o)
 .comment       0x00000000       0x1d ./gr_common/lib/\libc.a(lib_a-abort.o)
 .comment       0x00000000       0x1d ./gr_common/lib/\libc.a(lib_a-ctype_.o)
 .comment       0x00000000       0x1d ./gr_common/lib/\libc.a(lib_a-fputc.o)
 .comment       0x00000000       0x1d ./gr_common/lib/\libc.a(lib_a-fputs.o)
 .comment       0x00000000       0x1d ./gr_common/lib/\libc.a(lib_a-fvwrite.o)
 .comment       0x00000000       0x1d ./gr_common/lib/\libc.a(lib_a-fwrite.o)
 .comment       0x00000000       0x1d ./gr_common/lib/\libc.a(lib_a-malloc.o)
 .comment       0x00000000       0x1d ./gr_common/lib/\libc.a(lib_a-memcmp.o)
 .comment       0x00000000       0x1d ./gr_common/lib/\libc.a(lib_a-putc.o)
 .comment       0x00000000       0x1d ./gr_common/lib/\libc.a(lib_a-realloc.o)
 .comment       0x00000000       0x1d ./gr_common/lib/\libc.a(lib_a-signal.o)
 .comment       0x00000000       0x1d ./gr_common/lib/\libc.a(lib_a-signalr.o)
 .comment       0x00000000       0x1d ./gr_common/lib/\libc.a(lib_a-strdup.o)
 .comment       0x00000000       0x1d ./gr_common/lib/\libc.a(lib_a-strdup_r.o)
 .comment       0x00000000       0x1d ./gr_common/lib/\libc.a(lib_a-strerror.o)
 .comment       0x00000000       0x1d ./gr_common/lib/\libc.a(lib_a-u_strerr.o)
 .comment       0x00000000       0x1d ./gr_common/lib/\libc.a(lib_a-wbuf.o)
 .comment       0x00000000       0x1d ./gr_common/lib/\libc.a(lib_a-wsetup.o)
 .comment       0x00000000       0x1d ./gr_common/lib/\libc.a(lib_a-fflush.o)
 .comment       0x00000000       0x1d ./gr_common/lib/\libc.a(lib_a-findfp.o)
 .comment       0x00000000       0x1d ./gr_common/lib/\libc.a(lib_a-fwalk.o)
 .comment       0x00000000       0x1d ./gr_common/lib/\libc.a(lib_a-makebuf.o)
 .comment       0x00000000       0x1d ./gr_common/lib/\libc.a(lib_a-stdio.o)
 .comment       0x00000000       0x1d ./gr_common/lib/\libc.a(lib_a-writer.o)
 .comment       0x00000000       0x1d ./gr_common/lib/\libc.a(lib_a-closer.o)
 .comment       0x00000000       0x1d ./gr_common/lib/\libc.a(lib_a-fclose.o)
 .comment       0x00000000       0x1d ./gr_common/lib/\libc.a(lib_a-fstatr.o)
 .comment       0x00000000       0x1d ./gr_common/lib/\libc.a(lib_a-isattyr.o)
 .comment       0x00000000       0x1d ./gr_common/lib/\libc.a(lib_a-lseekr.o)
 .comment       0x00000000       0x1d ./gr_common/lib/\libc.a(lib_a-readr.o)
 .comment       0x00000000       0x12 ./gr_common/lib/\libgcc.a(unwind-sjlj.o)
